
rv32ui-p-sll：     文件格式 elf32-littleriscv


Disassembly of section .text.init:

80000000 <_start>:
80000000:	0080006f          	j	80000008 <reset_vector>

80000004 <trap_vector>:
80000004:	0000006f          	j	80000004 <trap_vector>

80000008 <reset_vector>:
80000008:	00100093          	li	ra,1
8000000c:	00000113          	li	sp,0
80000010:	00209733          	sll	a4,ra,sp
80000014:	00100e93          	li	t4,1
80000018:	00200193          	li	gp,2
8000001c:	53d71e63          	bne	a4,t4,80000558 <fail>

80000020 <test_3>:
80000020:	00100093          	li	ra,1
80000024:	00100113          	li	sp,1
80000028:	00209733          	sll	a4,ra,sp
8000002c:	00200e93          	li	t4,2
80000030:	00300193          	li	gp,3
80000034:	53d71263          	bne	a4,t4,80000558 <fail>

80000038 <test_4>:
80000038:	00100093          	li	ra,1
8000003c:	00700113          	li	sp,7
80000040:	00209733          	sll	a4,ra,sp
80000044:	08000e93          	li	t4,128
80000048:	00400193          	li	gp,4
8000004c:	51d71663          	bne	a4,t4,80000558 <fail>

80000050 <test_5>:
80000050:	00100093          	li	ra,1
80000054:	00e00113          	li	sp,14
80000058:	00209733          	sll	a4,ra,sp
8000005c:	00004eb7          	lui	t4,0x4
80000060:	00500193          	li	gp,5
80000064:	4fd71a63          	bne	a4,t4,80000558 <fail>

80000068 <test_6>:
80000068:	00100093          	li	ra,1
8000006c:	01f00113          	li	sp,31
80000070:	00209733          	sll	a4,ra,sp
80000074:	80000eb7          	lui	t4,0x80000
80000078:	00600193          	li	gp,6
8000007c:	4dd71e63          	bne	a4,t4,80000558 <fail>

80000080 <test_7>:
80000080:	fff00093          	li	ra,-1
80000084:	00000113          	li	sp,0
80000088:	00209733          	sll	a4,ra,sp
8000008c:	fff00e93          	li	t4,-1
80000090:	00700193          	li	gp,7
80000094:	4dd71263          	bne	a4,t4,80000558 <fail>

80000098 <test_8>:
80000098:	fff00093          	li	ra,-1
8000009c:	00100113          	li	sp,1
800000a0:	00209733          	sll	a4,ra,sp
800000a4:	ffe00e93          	li	t4,-2
800000a8:	00800193          	li	gp,8
800000ac:	4bd71663          	bne	a4,t4,80000558 <fail>

800000b0 <test_9>:
800000b0:	fff00093          	li	ra,-1
800000b4:	00700113          	li	sp,7
800000b8:	00209733          	sll	a4,ra,sp
800000bc:	f8000e93          	li	t4,-128
800000c0:	00900193          	li	gp,9
800000c4:	49d71a63          	bne	a4,t4,80000558 <fail>

800000c8 <test_10>:
800000c8:	fff00093          	li	ra,-1
800000cc:	00e00113          	li	sp,14
800000d0:	00209733          	sll	a4,ra,sp
800000d4:	ffffceb7          	lui	t4,0xffffc
800000d8:	00a00193          	li	gp,10
800000dc:	47d71e63          	bne	a4,t4,80000558 <fail>

800000e0 <test_11>:
800000e0:	fff00093          	li	ra,-1
800000e4:	01f00113          	li	sp,31
800000e8:	00209733          	sll	a4,ra,sp
800000ec:	80000eb7          	lui	t4,0x80000
800000f0:	00b00193          	li	gp,11
800000f4:	47d71263          	bne	a4,t4,80000558 <fail>

800000f8 <test_12>:
800000f8:	212120b7          	lui	ra,0x21212
800000fc:	12108093          	addi	ra,ra,289 # 21212121 <_start-0x5edededf>
80000100:	00000113          	li	sp,0
80000104:	00209733          	sll	a4,ra,sp
80000108:	21212eb7          	lui	t4,0x21212
8000010c:	121e8e93          	addi	t4,t4,289 # 21212121 <_start-0x5edededf>
80000110:	00c00193          	li	gp,12
80000114:	45d71263          	bne	a4,t4,80000558 <fail>

80000118 <test_13>:
80000118:	212120b7          	lui	ra,0x21212
8000011c:	12108093          	addi	ra,ra,289 # 21212121 <_start-0x5edededf>
80000120:	00100113          	li	sp,1
80000124:	00209733          	sll	a4,ra,sp
80000128:	42424eb7          	lui	t4,0x42424
8000012c:	242e8e93          	addi	t4,t4,578 # 42424242 <_start-0x3dbdbdbe>
80000130:	00d00193          	li	gp,13
80000134:	43d71263          	bne	a4,t4,80000558 <fail>

80000138 <test_14>:
80000138:	212120b7          	lui	ra,0x21212
8000013c:	12108093          	addi	ra,ra,289 # 21212121 <_start-0x5edededf>
80000140:	00700113          	li	sp,7
80000144:	00209733          	sll	a4,ra,sp
80000148:	90909eb7          	lui	t4,0x90909
8000014c:	080e8e93          	addi	t4,t4,128 # 90909080 <_end+0x10907080>
80000150:	00e00193          	li	gp,14
80000154:	41d71263          	bne	a4,t4,80000558 <fail>

80000158 <test_15>:
80000158:	212120b7          	lui	ra,0x21212
8000015c:	12108093          	addi	ra,ra,289 # 21212121 <_start-0x5edededf>
80000160:	00e00113          	li	sp,14
80000164:	00209733          	sll	a4,ra,sp
80000168:	48484eb7          	lui	t4,0x48484
8000016c:	00f00193          	li	gp,15
80000170:	3fd71463          	bne	a4,t4,80000558 <fail>

80000174 <test_16>:
80000174:	212120b7          	lui	ra,0x21212
80000178:	12108093          	addi	ra,ra,289 # 21212121 <_start-0x5edededf>
8000017c:	01f00113          	li	sp,31
80000180:	00209733          	sll	a4,ra,sp
80000184:	80000eb7          	lui	t4,0x80000
80000188:	01000193          	li	gp,16
8000018c:	3dd71663          	bne	a4,t4,80000558 <fail>

80000190 <test_17>:
80000190:	212120b7          	lui	ra,0x21212
80000194:	12108093          	addi	ra,ra,289 # 21212121 <_start-0x5edededf>
80000198:	fc000113          	li	sp,-64
8000019c:	00209733          	sll	a4,ra,sp
800001a0:	21212eb7          	lui	t4,0x21212
800001a4:	121e8e93          	addi	t4,t4,289 # 21212121 <_start-0x5edededf>
800001a8:	01100193          	li	gp,17
800001ac:	3bd71663          	bne	a4,t4,80000558 <fail>

800001b0 <test_18>:
800001b0:	212120b7          	lui	ra,0x21212
800001b4:	12108093          	addi	ra,ra,289 # 21212121 <_start-0x5edededf>
800001b8:	fc100113          	li	sp,-63
800001bc:	00209733          	sll	a4,ra,sp
800001c0:	42424eb7          	lui	t4,0x42424
800001c4:	242e8e93          	addi	t4,t4,578 # 42424242 <_start-0x3dbdbdbe>
800001c8:	01200193          	li	gp,18
800001cc:	39d71663          	bne	a4,t4,80000558 <fail>

800001d0 <test_19>:
800001d0:	212120b7          	lui	ra,0x21212
800001d4:	12108093          	addi	ra,ra,289 # 21212121 <_start-0x5edededf>
800001d8:	fc700113          	li	sp,-57
800001dc:	00209733          	sll	a4,ra,sp
800001e0:	90909eb7          	lui	t4,0x90909
800001e4:	080e8e93          	addi	t4,t4,128 # 90909080 <_end+0x10907080>
800001e8:	01300193          	li	gp,19
800001ec:	37d71663          	bne	a4,t4,80000558 <fail>

800001f0 <test_20>:
800001f0:	212120b7          	lui	ra,0x21212
800001f4:	12108093          	addi	ra,ra,289 # 21212121 <_start-0x5edededf>
800001f8:	fce00113          	li	sp,-50
800001fc:	00209733          	sll	a4,ra,sp
80000200:	48484eb7          	lui	t4,0x48484
80000204:	01400193          	li	gp,20
80000208:	35d71863          	bne	a4,t4,80000558 <fail>

8000020c <test_22>:
8000020c:	00100093          	li	ra,1
80000210:	00700113          	li	sp,7
80000214:	002090b3          	sll	ra,ra,sp
80000218:	08000e93          	li	t4,128
8000021c:	01600193          	li	gp,22
80000220:	33d09c63          	bne	ra,t4,80000558 <fail>

80000224 <test_23>:
80000224:	00100093          	li	ra,1
80000228:	00e00113          	li	sp,14
8000022c:	00209133          	sll	sp,ra,sp
80000230:	00004eb7          	lui	t4,0x4
80000234:	01700193          	li	gp,23
80000238:	33d11063          	bne	sp,t4,80000558 <fail>

8000023c <test_24>:
8000023c:	00300093          	li	ra,3
80000240:	001090b3          	sll	ra,ra,ra
80000244:	01800e93          	li	t4,24
80000248:	01800193          	li	gp,24
8000024c:	31d09663          	bne	ra,t4,80000558 <fail>

80000250 <test_25>:
80000250:	00000213          	li	tp,0
80000254:	00100093          	li	ra,1
80000258:	00700113          	li	sp,7
8000025c:	00209733          	sll	a4,ra,sp
80000260:	00070313          	mv	t1,a4
80000264:	00120213          	addi	tp,tp,1 # 1 <_start-0x7fffffff>
80000268:	00200293          	li	t0,2
8000026c:	fe5214e3          	bne	tp,t0,80000254 <test_25+0x4>
80000270:	08000e93          	li	t4,128
80000274:	01900193          	li	gp,25
80000278:	2fd31063          	bne	t1,t4,80000558 <fail>

8000027c <test_26>:
8000027c:	00000213          	li	tp,0
80000280:	00100093          	li	ra,1
80000284:	00e00113          	li	sp,14
80000288:	00209733          	sll	a4,ra,sp
8000028c:	00000013          	nop
80000290:	00070313          	mv	t1,a4
80000294:	00120213          	addi	tp,tp,1 # 1 <_start-0x7fffffff>
80000298:	00200293          	li	t0,2
8000029c:	fe5212e3          	bne	tp,t0,80000280 <test_26+0x4>
800002a0:	00004eb7          	lui	t4,0x4
800002a4:	01a00193          	li	gp,26
800002a8:	2bd31863          	bne	t1,t4,80000558 <fail>

800002ac <test_27>:
800002ac:	00000213          	li	tp,0
800002b0:	00100093          	li	ra,1
800002b4:	01f00113          	li	sp,31
800002b8:	00209733          	sll	a4,ra,sp
800002bc:	00000013          	nop
800002c0:	00000013          	nop
800002c4:	00070313          	mv	t1,a4
800002c8:	00120213          	addi	tp,tp,1 # 1 <_start-0x7fffffff>
800002cc:	00200293          	li	t0,2
800002d0:	fe5210e3          	bne	tp,t0,800002b0 <test_27+0x4>
800002d4:	80000eb7          	lui	t4,0x80000
800002d8:	01b00193          	li	gp,27
800002dc:	27d31e63          	bne	t1,t4,80000558 <fail>

800002e0 <test_28>:
800002e0:	00000213          	li	tp,0
800002e4:	00100093          	li	ra,1
800002e8:	00700113          	li	sp,7
800002ec:	00209733          	sll	a4,ra,sp
800002f0:	00120213          	addi	tp,tp,1 # 1 <_start-0x7fffffff>
800002f4:	00200293          	li	t0,2
800002f8:	fe5216e3          	bne	tp,t0,800002e4 <test_28+0x4>
800002fc:	08000e93          	li	t4,128
80000300:	01c00193          	li	gp,28
80000304:	25d71a63          	bne	a4,t4,80000558 <fail>

80000308 <test_29>:
80000308:	00000213          	li	tp,0
8000030c:	00100093          	li	ra,1
80000310:	00e00113          	li	sp,14
80000314:	00000013          	nop
80000318:	00209733          	sll	a4,ra,sp
8000031c:	00120213          	addi	tp,tp,1 # 1 <_start-0x7fffffff>
80000320:	00200293          	li	t0,2
80000324:	fe5214e3          	bne	tp,t0,8000030c <test_29+0x4>
80000328:	00004eb7          	lui	t4,0x4
8000032c:	01d00193          	li	gp,29
80000330:	23d71463          	bne	a4,t4,80000558 <fail>

80000334 <test_30>:
80000334:	00000213          	li	tp,0
80000338:	00100093          	li	ra,1
8000033c:	01f00113          	li	sp,31
80000340:	00000013          	nop
80000344:	00000013          	nop
80000348:	00209733          	sll	a4,ra,sp
8000034c:	00120213          	addi	tp,tp,1 # 1 <_start-0x7fffffff>
80000350:	00200293          	li	t0,2
80000354:	fe5212e3          	bne	tp,t0,80000338 <test_30+0x4>
80000358:	80000eb7          	lui	t4,0x80000
8000035c:	01e00193          	li	gp,30
80000360:	1fd71c63          	bne	a4,t4,80000558 <fail>

80000364 <test_31>:
80000364:	00000213          	li	tp,0
80000368:	00100093          	li	ra,1
8000036c:	00000013          	nop
80000370:	00700113          	li	sp,7
80000374:	00209733          	sll	a4,ra,sp
80000378:	00120213          	addi	tp,tp,1 # 1 <_start-0x7fffffff>
8000037c:	00200293          	li	t0,2
80000380:	fe5214e3          	bne	tp,t0,80000368 <test_31+0x4>
80000384:	08000e93          	li	t4,128
80000388:	01f00193          	li	gp,31
8000038c:	1dd71663          	bne	a4,t4,80000558 <fail>

80000390 <test_32>:
80000390:	00000213          	li	tp,0
80000394:	00100093          	li	ra,1
80000398:	00000013          	nop
8000039c:	00e00113          	li	sp,14
800003a0:	00000013          	nop
800003a4:	00209733          	sll	a4,ra,sp
800003a8:	00120213          	addi	tp,tp,1 # 1 <_start-0x7fffffff>
800003ac:	00200293          	li	t0,2
800003b0:	fe5212e3          	bne	tp,t0,80000394 <test_32+0x4>
800003b4:	00004eb7          	lui	t4,0x4
800003b8:	02000193          	li	gp,32
800003bc:	19d71e63          	bne	a4,t4,80000558 <fail>

800003c0 <test_33>:
800003c0:	00000213          	li	tp,0
800003c4:	00100093          	li	ra,1
800003c8:	00000013          	nop
800003cc:	00000013          	nop
800003d0:	01f00113          	li	sp,31
800003d4:	00209733          	sll	a4,ra,sp
800003d8:	00120213          	addi	tp,tp,1 # 1 <_start-0x7fffffff>
800003dc:	00200293          	li	t0,2
800003e0:	fe5212e3          	bne	tp,t0,800003c4 <test_33+0x4>
800003e4:	80000eb7          	lui	t4,0x80000
800003e8:	02100193          	li	gp,33
800003ec:	17d71663          	bne	a4,t4,80000558 <fail>

800003f0 <test_34>:
800003f0:	00000213          	li	tp,0
800003f4:	00700113          	li	sp,7
800003f8:	00100093          	li	ra,1
800003fc:	00209733          	sll	a4,ra,sp
80000400:	00120213          	addi	tp,tp,1 # 1 <_start-0x7fffffff>
80000404:	00200293          	li	t0,2
80000408:	fe5216e3          	bne	tp,t0,800003f4 <test_34+0x4>
8000040c:	08000e93          	li	t4,128
80000410:	02200193          	li	gp,34
80000414:	15d71263          	bne	a4,t4,80000558 <fail>

80000418 <test_35>:
80000418:	00000213          	li	tp,0
8000041c:	00e00113          	li	sp,14
80000420:	00100093          	li	ra,1
80000424:	00000013          	nop
80000428:	00209733          	sll	a4,ra,sp
8000042c:	00120213          	addi	tp,tp,1 # 1 <_start-0x7fffffff>
80000430:	00200293          	li	t0,2
80000434:	fe5214e3          	bne	tp,t0,8000041c <test_35+0x4>
80000438:	00004eb7          	lui	t4,0x4
8000043c:	02300193          	li	gp,35
80000440:	11d71c63          	bne	a4,t4,80000558 <fail>

80000444 <test_36>:
80000444:	00000213          	li	tp,0
80000448:	01f00113          	li	sp,31
8000044c:	00100093          	li	ra,1
80000450:	00000013          	nop
80000454:	00000013          	nop
80000458:	00209733          	sll	a4,ra,sp
8000045c:	00120213          	addi	tp,tp,1 # 1 <_start-0x7fffffff>
80000460:	00200293          	li	t0,2
80000464:	fe5212e3          	bne	tp,t0,80000448 <test_36+0x4>
80000468:	80000eb7          	lui	t4,0x80000
8000046c:	02400193          	li	gp,36
80000470:	0fd71463          	bne	a4,t4,80000558 <fail>

80000474 <test_37>:
80000474:	00000213          	li	tp,0
80000478:	00700113          	li	sp,7
8000047c:	00000013          	nop
80000480:	00100093          	li	ra,1
80000484:	00209733          	sll	a4,ra,sp
80000488:	00120213          	addi	tp,tp,1 # 1 <_start-0x7fffffff>
8000048c:	00200293          	li	t0,2
80000490:	fe5214e3          	bne	tp,t0,80000478 <test_37+0x4>
80000494:	08000e93          	li	t4,128
80000498:	02500193          	li	gp,37
8000049c:	0bd71e63          	bne	a4,t4,80000558 <fail>

800004a0 <test_38>:
800004a0:	00000213          	li	tp,0
800004a4:	00e00113          	li	sp,14
800004a8:	00000013          	nop
800004ac:	00100093          	li	ra,1
800004b0:	00000013          	nop
800004b4:	00209733          	sll	a4,ra,sp
800004b8:	00120213          	addi	tp,tp,1 # 1 <_start-0x7fffffff>
800004bc:	00200293          	li	t0,2
800004c0:	fe5212e3          	bne	tp,t0,800004a4 <test_38+0x4>
800004c4:	00004eb7          	lui	t4,0x4
800004c8:	02600193          	li	gp,38
800004cc:	09d71663          	bne	a4,t4,80000558 <fail>

800004d0 <test_39>:
800004d0:	00000213          	li	tp,0
800004d4:	01f00113          	li	sp,31
800004d8:	00000013          	nop
800004dc:	00000013          	nop
800004e0:	00100093          	li	ra,1
800004e4:	00209733          	sll	a4,ra,sp
800004e8:	00120213          	addi	tp,tp,1 # 1 <_start-0x7fffffff>
800004ec:	00200293          	li	t0,2
800004f0:	fe5212e3          	bne	tp,t0,800004d4 <test_39+0x4>
800004f4:	80000eb7          	lui	t4,0x80000
800004f8:	02700193          	li	gp,39
800004fc:	05d71e63          	bne	a4,t4,80000558 <fail>

80000500 <test_40>:
80000500:	00f00093          	li	ra,15
80000504:	00101133          	sll	sp,zero,ra
80000508:	00000e93          	li	t4,0
8000050c:	02800193          	li	gp,40
80000510:	05d11463          	bne	sp,t4,80000558 <fail>

80000514 <test_41>:
80000514:	02000093          	li	ra,32
80000518:	00009133          	sll	sp,ra,zero
8000051c:	02000e93          	li	t4,32
80000520:	02900193          	li	gp,41
80000524:	03d11a63          	bne	sp,t4,80000558 <fail>

80000528 <test_42>:
80000528:	000010b3          	sll	ra,zero,zero
8000052c:	00000e93          	li	t4,0
80000530:	02a00193          	li	gp,42
80000534:	03d09263          	bne	ra,t4,80000558 <fail>

80000538 <test_43>:
80000538:	40000093          	li	ra,1024
8000053c:	00001137          	lui	sp,0x1
80000540:	80010113          	addi	sp,sp,-2048 # 800 <_start-0x7ffff800>
80000544:	00209033          	sll	zero,ra,sp
80000548:	00000e93          	li	t4,0
8000054c:	02b00193          	li	gp,43
80000550:	01d01463          	bne	zero,t4,80000558 <fail>
80000554:	00301c63          	bne	zero,gp,8000056c <pass>

80000558 <fail>:
80000558:	0ff0000f          	fence
8000055c:	00018063          	beqz	gp,8000055c <fail+0x4>
80000560:	00119193          	slli	gp,gp,0x1
80000564:	0011e193          	ori	gp,gp,1
80000568:	00000073          	ecall

8000056c <pass>:
8000056c:	0ff0000f          	fence
80000570:	00100193          	li	gp,1
80000574:	00000073          	ecall
80000578:	c0001073          	unimp
