
towers.riscv：     文件格式 elf32-littleriscv


Disassembly of section .text:

80001048 <towers_verify.part.0>:
80001048:	00052603          	lw	a2,0(a0)
8000104c:	01852783          	lw	a5,24(a0)
80001050:	02c79863          	bne	a5,a2,80001080 <towers_verify.part.0+0x38>
80001054:	01c52783          	lw	a5,28(a0)
80001058:	02078863          	beqz	a5,80001088 <towers_verify.part.0+0x40>
8000105c:	00000713          	li	a4,0
80001060:	00c0006f          	j	8000106c <towers_verify.part.0+0x24>
80001064:	0047a783          	lw	a5,4(a5)
80001068:	02078063          	beqz	a5,80001088 <towers_verify.part.0+0x40>
8000106c:	0007a683          	lw	a3,0(a5)
80001070:	00170713          	addi	a4,a4,1
80001074:	fed708e3          	beq	a4,a3,80001064 <towers_verify.part.0+0x1c>
80001078:	00500513          	li	a0,5
8000107c:	00008067          	ret
80001080:	00400513          	li	a0,4
80001084:	00008067          	ret
80001088:	00452703          	lw	a4,4(a0)
8000108c:	00100793          	li	a5,1
80001090:	00c79633          	sll	a2,a5,a2
80001094:	fff60613          	addi	a2,a2,-1
80001098:	00000513          	li	a0,0
8000109c:	fec700e3          	beq	a4,a2,8000107c <towers_verify.part.0+0x34>
800010a0:	00600513          	li	a0,6
800010a4:	00008067          	ret

800010a8 <list_getSize>:
800010a8:	00052503          	lw	a0,0(a0)
800010ac:	00008067          	ret

800010b0 <list_init>:
800010b0:	00052023          	sw	zero,0(a0)
800010b4:	00052223          	sw	zero,4(a0)
800010b8:	00008067          	ret

800010bc <list_push>:
800010bc:	00002697          	auipc	a3,0x2
800010c0:	6c068693          	addi	a3,a3,1728 # 8000377c <g_nodeFreeList>
800010c4:	0046a783          	lw	a5,4(a3)
800010c8:	00052703          	lw	a4,0(a0)
800010cc:	0047a603          	lw	a2,4(a5)
800010d0:	00170713          	addi	a4,a4,1
800010d4:	00c6a223          	sw	a2,4(a3)
800010d8:	00452683          	lw	a3,4(a0)
800010dc:	00d7a223          	sw	a3,4(a5)
800010e0:	00f52223          	sw	a5,4(a0)
800010e4:	00b7a023          	sw	a1,0(a5)
800010e8:	00e52023          	sw	a4,0(a0)
800010ec:	00008067          	ret

800010f0 <list_pop>:
800010f0:	00452703          	lw	a4,4(a0)
800010f4:	00050793          	mv	a5,a0
800010f8:	00052683          	lw	a3,0(a0)
800010fc:	00472583          	lw	a1,4(a4)
80001100:	00072503          	lw	a0,0(a4)
80001104:	00002617          	auipc	a2,0x2
80001108:	67860613          	addi	a2,a2,1656 # 8000377c <g_nodeFreeList>
8000110c:	00b7a223          	sw	a1,4(a5)
80001110:	00462583          	lw	a1,4(a2)
80001114:	fff68693          	addi	a3,a3,-1
80001118:	00b72223          	sw	a1,4(a4)
8000111c:	00e62223          	sw	a4,4(a2)
80001120:	00d7a023          	sw	a3,0(a5)
80001124:	00008067          	ret

80001128 <list_clear>:
80001128:	00052703          	lw	a4,0(a0)
8000112c:	02e05863          	blez	a4,8000115c <list_clear+0x34>
80001130:	00002697          	auipc	a3,0x2
80001134:	64c68693          	addi	a3,a3,1612 # 8000377c <g_nodeFreeList>
80001138:	00452783          	lw	a5,4(a0)
8000113c:	fff70713          	addi	a4,a4,-1
80001140:	0047a603          	lw	a2,4(a5)
80001144:	00c52223          	sw	a2,4(a0)
80001148:	0046a603          	lw	a2,4(a3)
8000114c:	00c7a223          	sw	a2,4(a5)
80001150:	00f6a223          	sw	a5,4(a3)
80001154:	fe0712e3          	bnez	a4,80001138 <list_clear+0x10>
80001158:	00052023          	sw	zero,0(a0)
8000115c:	00008067          	ret

80001160 <towers_init>:
80001160:	00b52023          	sw	a1,0(a0)
80001164:	00052223          	sw	zero,4(a0)
80001168:	00052423          	sw	zero,8(a0)
8000116c:	00052623          	sw	zero,12(a0)
80001170:	00052823          	sw	zero,16(a0)
80001174:	00052a23          	sw	zero,20(a0)
80001178:	00052c23          	sw	zero,24(a0)
8000117c:	00052e23          	sw	zero,28(a0)
80001180:	04b05263          	blez	a1,800011c4 <towers_init+0x64>
80001184:	00002817          	auipc	a6,0x2
80001188:	5f880813          	addi	a6,a6,1528 # 8000377c <g_nodeFreeList>
8000118c:	00482783          	lw	a5,4(a6)
80001190:	00058713          	mv	a4,a1
80001194:	00000693          	li	a3,0
80001198:	0080006f          	j	800011a0 <towers_init+0x40>
8000119c:	00060793          	mv	a5,a2
800011a0:	0047a603          	lw	a2,4(a5)
800011a4:	00e7a023          	sw	a4,0(a5)
800011a8:	00d7a223          	sw	a3,4(a5)
800011ac:	fff70713          	addi	a4,a4,-1
800011b0:	00078693          	mv	a3,a5
800011b4:	fe0714e3          	bnez	a4,8000119c <towers_init+0x3c>
800011b8:	00c82223          	sw	a2,4(a6)
800011bc:	00f52623          	sw	a5,12(a0)
800011c0:	00b52423          	sw	a1,8(a0)
800011c4:	00008067          	ret

800011c8 <towers_clear>:
800011c8:	00852703          	lw	a4,8(a0)
800011cc:	02e05e63          	blez	a4,80001208 <towers_clear+0x40>
800011d0:	00002597          	auipc	a1,0x2
800011d4:	5ac58593          	addi	a1,a1,1452 # 8000377c <g_nodeFreeList>
800011d8:	00c52783          	lw	a5,12(a0)
800011dc:	0045a683          	lw	a3,4(a1)
800011e0:	0080006f          	j	800011e8 <towers_clear+0x20>
800011e4:	00060793          	mv	a5,a2
800011e8:	0047a603          	lw	a2,4(a5)
800011ec:	fff70713          	addi	a4,a4,-1
800011f0:	00d7a223          	sw	a3,4(a5)
800011f4:	00078693          	mv	a3,a5
800011f8:	fe0716e3          	bnez	a4,800011e4 <towers_clear+0x1c>
800011fc:	00f5a223          	sw	a5,4(a1)
80001200:	00c52623          	sw	a2,12(a0)
80001204:	00052423          	sw	zero,8(a0)
80001208:	01052703          	lw	a4,16(a0)
8000120c:	02e05e63          	blez	a4,80001248 <towers_clear+0x80>
80001210:	00002597          	auipc	a1,0x2
80001214:	56c58593          	addi	a1,a1,1388 # 8000377c <g_nodeFreeList>
80001218:	01452783          	lw	a5,20(a0)
8000121c:	0045a683          	lw	a3,4(a1)
80001220:	0080006f          	j	80001228 <towers_clear+0x60>
80001224:	00060793          	mv	a5,a2
80001228:	0047a603          	lw	a2,4(a5)
8000122c:	fff70713          	addi	a4,a4,-1
80001230:	00d7a223          	sw	a3,4(a5)
80001234:	00078693          	mv	a3,a5
80001238:	fe0716e3          	bnez	a4,80001224 <towers_clear+0x5c>
8000123c:	00f5a223          	sw	a5,4(a1)
80001240:	00c52a23          	sw	a2,20(a0)
80001244:	00052823          	sw	zero,16(a0)
80001248:	01852703          	lw	a4,24(a0)
8000124c:	02e05a63          	blez	a4,80001280 <towers_clear+0xb8>
80001250:	00002597          	auipc	a1,0x2
80001254:	52c58593          	addi	a1,a1,1324 # 8000377c <g_nodeFreeList>
80001258:	01c52783          	lw	a5,28(a0)
8000125c:	0045a683          	lw	a3,4(a1)
80001260:	0080006f          	j	80001268 <towers_clear+0xa0>
80001264:	00060793          	mv	a5,a2
80001268:	0047a603          	lw	a2,4(a5)
8000126c:	fff70713          	addi	a4,a4,-1
80001270:	00d7a223          	sw	a3,4(a5)
80001274:	00078693          	mv	a3,a5
80001278:	fe0716e3          	bnez	a4,80001264 <towers_clear+0x9c>
8000127c:	00f5a223          	sw	a5,4(a1)
80001280:	00052803          	lw	a6,0(a0)
80001284:	00052223          	sw	zero,4(a0)
80001288:	00052423          	sw	zero,8(a0)
8000128c:	00052623          	sw	zero,12(a0)
80001290:	00052823          	sw	zero,16(a0)
80001294:	00052a23          	sw	zero,20(a0)
80001298:	00052c23          	sw	zero,24(a0)
8000129c:	00052e23          	sw	zero,28(a0)
800012a0:	05005263          	blez	a6,800012e4 <towers_clear+0x11c>
800012a4:	00002597          	auipc	a1,0x2
800012a8:	4d858593          	addi	a1,a1,1240 # 8000377c <g_nodeFreeList>
800012ac:	0045a783          	lw	a5,4(a1)
800012b0:	00080713          	mv	a4,a6
800012b4:	00000693          	li	a3,0
800012b8:	0080006f          	j	800012c0 <towers_clear+0xf8>
800012bc:	00060793          	mv	a5,a2
800012c0:	0047a603          	lw	a2,4(a5)
800012c4:	00e7a023          	sw	a4,0(a5)
800012c8:	00d7a223          	sw	a3,4(a5)
800012cc:	fff70713          	addi	a4,a4,-1
800012d0:	00078693          	mv	a3,a5
800012d4:	fe0714e3          	bnez	a4,800012bc <towers_clear+0xf4>
800012d8:	00c5a223          	sw	a2,4(a1)
800012dc:	00f52623          	sw	a5,12(a0)
800012e0:	01052423          	sw	a6,8(a0)
800012e4:	00008067          	ret

800012e8 <towers_solve_h>:
800012e8:	fe010113          	addi	sp,sp,-32
800012ec:	00812c23          	sw	s0,24(sp)
800012f0:	00912a23          	sw	s1,20(sp)
800012f4:	01212823          	sw	s2,16(sp)
800012f8:	01312623          	sw	s3,12(sp)
800012fc:	01412423          	sw	s4,8(sp)
80001300:	00112e23          	sw	ra,28(sp)
80001304:	00100793          	li	a5,1
80001308:	00050a13          	mv	s4,a0
8000130c:	00060913          	mv	s2,a2
80001310:	00070993          	mv	s3,a4
80001314:	00058493          	mv	s1,a1
80001318:	00068413          	mv	s0,a3
8000131c:	04f58863          	beq	a1,a5,8000136c <towers_solve_h+0x84>
80001320:	fff48493          	addi	s1,s1,-1
80001324:	00048593          	mv	a1,s1
80001328:	000a0513          	mv	a0,s4
8000132c:	00040713          	mv	a4,s0
80001330:	00098693          	mv	a3,s3
80001334:	00090613          	mv	a2,s2
80001338:	fb1ff0ef          	jal	ra,800012e8 <towers_solve_h>
8000133c:	00098713          	mv	a4,s3
80001340:	00040693          	mv	a3,s0
80001344:	00090613          	mv	a2,s2
80001348:	00100593          	li	a1,1
8000134c:	000a0513          	mv	a0,s4
80001350:	f99ff0ef          	jal	ra,800012e8 <towers_solve_h>
80001354:	00100793          	li	a5,1
80001358:	00090713          	mv	a4,s2
8000135c:	00f48a63          	beq	s1,a5,80001370 <towers_solve_h+0x88>
80001360:	00040913          	mv	s2,s0
80001364:	00070413          	mv	s0,a4
80001368:	fb9ff06f          	j	80001320 <towers_solve_h+0x38>
8000136c:	00060413          	mv	s0,a2
80001370:	00442783          	lw	a5,4(s0)
80001374:	00042683          	lw	a3,0(s0)
80001378:	004a2703          	lw	a4,4(s4)
8000137c:	0047a583          	lw	a1,4(a5)
80001380:	0007a603          	lw	a2,0(a5)
80001384:	fff68693          	addi	a3,a3,-1
80001388:	00b42223          	sw	a1,4(s0)
8000138c:	0049a583          	lw	a1,4(s3)
80001390:	00d42023          	sw	a3,0(s0)
80001394:	0009a683          	lw	a3,0(s3)
80001398:	00b7a223          	sw	a1,4(a5)
8000139c:	00f9a223          	sw	a5,4(s3)
800013a0:	00c7a023          	sw	a2,0(a5)
800013a4:	01c12083          	lw	ra,28(sp)
800013a8:	01812403          	lw	s0,24(sp)
800013ac:	00168793          	addi	a5,a3,1
800013b0:	00f9a023          	sw	a5,0(s3)
800013b4:	00170793          	addi	a5,a4,1
800013b8:	00fa2223          	sw	a5,4(s4)
800013bc:	01412483          	lw	s1,20(sp)
800013c0:	01012903          	lw	s2,16(sp)
800013c4:	00c12983          	lw	s3,12(sp)
800013c8:	00812a03          	lw	s4,8(sp)
800013cc:	02010113          	addi	sp,sp,32
800013d0:	00008067          	ret

800013d4 <towers_solve>:
800013d4:	00052583          	lw	a1,0(a0)
800013d8:	01850713          	addi	a4,a0,24
800013dc:	01050693          	addi	a3,a0,16
800013e0:	00850613          	addi	a2,a0,8
800013e4:	f05ff06f          	j	800012e8 <towers_solve_h>

800013e8 <towers_verify>:
800013e8:	00852703          	lw	a4,8(a0)
800013ec:	00071863          	bnez	a4,800013fc <towers_verify+0x14>
800013f0:	01052783          	lw	a5,16(a0)
800013f4:	00079863          	bnez	a5,80001404 <towers_verify+0x1c>
800013f8:	c51ff06f          	j	80001048 <towers_verify.part.0>
800013fc:	00200513          	li	a0,2
80001400:	00008067          	ret
80001404:	00300513          	li	a0,3
80001408:	00008067          	ret

8000140c <vprintfmt>:
8000140c:	eb010113          	addi	sp,sp,-336
80001410:	13912223          	sw	s9,292(sp)
80001414:	40000cb7          	lui	s9,0x40000
80001418:	fffc8793          	addi	a5,s9,-1 # 3fffffff <buflen.2940+0x3fffffbf>
8000141c:	14812423          	sw	s0,328(sp)
80001420:	14912223          	sw	s1,324(sp)
80001424:	15212023          	sw	s2,320(sp)
80001428:	13512a23          	sw	s5,308(sp)
8000142c:	14112623          	sw	ra,332(sp)
80001430:	13312e23          	sw	s3,316(sp)
80001434:	13412c23          	sw	s4,312(sp)
80001438:	13612823          	sw	s6,304(sp)
8000143c:	13712623          	sw	s7,300(sp)
80001440:	13812423          	sw	s8,296(sp)
80001444:	13a12023          	sw	s10,288(sp)
80001448:	11b12e23          	sw	s11,284(sp)
8000144c:	00050913          	mv	s2,a0
80001450:	00058493          	mv	s1,a1
80001454:	00060413          	mv	s0,a2
80001458:	00d12423          	sw	a3,8(sp)
8000145c:	02500a93          	li	s5,37
80001460:	00f12623          	sw	a5,12(sp)
80001464:	0140006f          	j	80001478 <vprintfmt+0x6c>
80001468:	06050463          	beqz	a0,800014d0 <vprintfmt+0xc4>
8000146c:	00048593          	mv	a1,s1
80001470:	00140413          	addi	s0,s0,1
80001474:	000900e7          	jalr	s2
80001478:	00044503          	lbu	a0,0(s0)
8000147c:	ff5516e3          	bne	a0,s5,80001468 <vprintfmt+0x5c>
80001480:	00144683          	lbu	a3,1(s0)
80001484:	00140d93          	addi	s11,s0,1
80001488:	000d8713          	mv	a4,s11
8000148c:	02000b93          	li	s7,32
80001490:	fff00993          	li	s3,-1
80001494:	fff00a13          	li	s4,-1
80001498:	00000593          	li	a1,0
8000149c:	05500613          	li	a2,85
800014a0:	00900513          	li	a0,9
800014a4:	fdd68793          	addi	a5,a3,-35
800014a8:	0ff7f793          	andi	a5,a5,255
800014ac:	00170413          	addi	s0,a4,1
800014b0:	06f66c63          	bltu	a2,a5,80001528 <vprintfmt+0x11c>
800014b4:	00002817          	auipc	a6,0x2
800014b8:	f6c80813          	addi	a6,a6,-148 # 80003420 <main+0x1c0>
800014bc:	00279793          	slli	a5,a5,0x2
800014c0:	010787b3          	add	a5,a5,a6
800014c4:	0007a783          	lw	a5,0(a5)
800014c8:	010787b3          	add	a5,a5,a6
800014cc:	00078067          	jr	a5
800014d0:	14c12083          	lw	ra,332(sp)
800014d4:	14812403          	lw	s0,328(sp)
800014d8:	14412483          	lw	s1,324(sp)
800014dc:	14012903          	lw	s2,320(sp)
800014e0:	13c12983          	lw	s3,316(sp)
800014e4:	13812a03          	lw	s4,312(sp)
800014e8:	13412a83          	lw	s5,308(sp)
800014ec:	13012b03          	lw	s6,304(sp)
800014f0:	12c12b83          	lw	s7,300(sp)
800014f4:	12812c03          	lw	s8,296(sp)
800014f8:	12412c83          	lw	s9,292(sp)
800014fc:	12012d03          	lw	s10,288(sp)
80001500:	11c12d83          	lw	s11,284(sp)
80001504:	15010113          	addi	sp,sp,336
80001508:	00008067          	ret
8000150c:	00068b93          	mv	s7,a3
80001510:	00174683          	lbu	a3,1(a4)
80001514:	00040713          	mv	a4,s0
80001518:	00170413          	addi	s0,a4,1
8000151c:	fdd68793          	addi	a5,a3,-35
80001520:	0ff7f793          	andi	a5,a5,255
80001524:	f8f678e3          	bgeu	a2,a5,800014b4 <vprintfmt+0xa8>
80001528:	00048593          	mv	a1,s1
8000152c:	02500513          	li	a0,37
80001530:	000900e7          	jalr	s2
80001534:	000d8413          	mv	s0,s11
80001538:	f41ff06f          	j	80001478 <vprintfmt+0x6c>
8000153c:	00174803          	lbu	a6,1(a4)
80001540:	fd068993          	addi	s3,a3,-48
80001544:	00040713          	mv	a4,s0
80001548:	fd080793          	addi	a5,a6,-48
8000154c:	00080693          	mv	a3,a6
80001550:	02f56663          	bltu	a0,a5,8000157c <vprintfmt+0x170>
80001554:	00299793          	slli	a5,s3,0x2
80001558:	013789b3          	add	s3,a5,s3
8000155c:	00170713          	addi	a4,a4,1
80001560:	00199993          	slli	s3,s3,0x1
80001564:	010989b3          	add	s3,s3,a6
80001568:	00074803          	lbu	a6,0(a4)
8000156c:	fd098993          	addi	s3,s3,-48
80001570:	fd080793          	addi	a5,a6,-48
80001574:	00080693          	mv	a3,a6
80001578:	fcf57ee3          	bgeu	a0,a5,80001554 <vprintfmt+0x148>
8000157c:	f20a54e3          	bgez	s4,800014a4 <vprintfmt+0x98>
80001580:	00098a13          	mv	s4,s3
80001584:	fff00993          	li	s3,-1
80001588:	f1dff06f          	j	800014a4 <vprintfmt+0x98>
8000158c:	00174683          	lbu	a3,1(a4)
80001590:	00040713          	mv	a4,s0
80001594:	f11ff06f          	j	800014a4 <vprintfmt+0x98>
80001598:	00048593          	mv	a1,s1
8000159c:	02500513          	li	a0,37
800015a0:	000900e7          	jalr	s2
800015a4:	ed5ff06f          	j	80001478 <vprintfmt+0x6c>
800015a8:	00812783          	lw	a5,8(sp)
800015ac:	00174683          	lbu	a3,1(a4)
800015b0:	00040713          	mv	a4,s0
800015b4:	0007a983          	lw	s3,0(a5)
800015b8:	00478793          	addi	a5,a5,4
800015bc:	00f12423          	sw	a5,8(sp)
800015c0:	fbdff06f          	j	8000157c <vprintfmt+0x170>
800015c4:	03000513          	li	a0,48
800015c8:	00048593          	mv	a1,s1
800015cc:	000900e7          	jalr	s2
800015d0:	00048593          	mv	a1,s1
800015d4:	07800513          	li	a0,120
800015d8:	000900e7          	jalr	s2
800015dc:	00812783          	lw	a5,8(sp)
800015e0:	01000c13          	li	s8,16
800015e4:	00012223          	sw	zero,4(sp)
800015e8:	00478713          	addi	a4,a5,4
800015ec:	00812783          	lw	a5,8(sp)
800015f0:	00000d93          	li	s11,0
800015f4:	0007a983          	lw	s3,0(a5)
800015f8:	00e12423          	sw	a4,8(sp)
800015fc:	000c0613          	mv	a2,s8
80001600:	00000693          	li	a3,0
80001604:	00098513          	mv	a0,s3
80001608:	000d8593          	mv	a1,s11
8000160c:	5a4010ef          	jal	ra,80002bb0 <__umoddi3>
80001610:	00a12823          	sw	a0,16(sp)
80001614:	00000793          	li	a5,0
80001618:	00050c93          	mv	s9,a0
8000161c:	21b78e63          	beq	a5,s11,80001838 <vprintfmt+0x42c>
80001620:	01410b13          	addi	s6,sp,20
80001624:	00100d13          	li	s10,1
80001628:	000c0613          	mv	a2,s8
8000162c:	00000693          	li	a3,0
80001630:	00098513          	mv	a0,s3
80001634:	000d8593          	mv	a1,s11
80001638:	735000ef          	jal	ra,8000256c <__udivdi3>
8000163c:	000c0613          	mv	a2,s8
80001640:	00000693          	li	a3,0
80001644:	00050993          	mv	s3,a0
80001648:	00058d93          	mv	s11,a1
8000164c:	564010ef          	jal	ra,80002bb0 <__umoddi3>
80001650:	00412783          	lw	a5,4(sp)
80001654:	00ab2023          	sw	a0,0(s6)
80001658:	01a12023          	sw	s10,0(sp)
8000165c:	00050c93          	mv	s9,a0
80001660:	004b0b13          	addi	s6,s6,4
80001664:	001d0d13          	addi	s10,s10,1
80001668:	fdb790e3          	bne	a5,s11,80001628 <vprintfmt+0x21c>
8000166c:	fb89fee3          	bgeu	s3,s8,80001628 <vprintfmt+0x21c>
80001670:	014d5c63          	bge	s10,s4,80001688 <vprintfmt+0x27c>
80001674:	fffa0a13          	addi	s4,s4,-1
80001678:	00048593          	mv	a1,s1
8000167c:	000b8513          	mv	a0,s7
80001680:	000900e7          	jalr	s2
80001684:	ff4d48e3          	blt	s10,s4,80001674 <vprintfmt+0x268>
80001688:	00012783          	lw	a5,0(sp)
8000168c:	00c12703          	lw	a4,12(sp)
80001690:	00900a13          	li	s4,9
80001694:	00e789b3          	add	s3,a5,a4
80001698:	00299993          	slli	s3,s3,0x2
8000169c:	01010793          	addi	a5,sp,16
800016a0:	013789b3          	add	s3,a5,s3
800016a4:	00c0006f          	j	800016b0 <vprintfmt+0x2a4>
800016a8:	0009ac83          	lw	s9,0(s3)
800016ac:	ffc98993          	addi	s3,s3,-4
800016b0:	05700513          	li	a0,87
800016b4:	019a6463          	bltu	s4,s9,800016bc <vprintfmt+0x2b0>
800016b8:	03000513          	li	a0,48
800016bc:	00048593          	mv	a1,s1
800016c0:	01950533          	add	a0,a0,s9
800016c4:	000900e7          	jalr	s2
800016c8:	00c10793          	addi	a5,sp,12
800016cc:	fd379ee3          	bne	a5,s3,800016a8 <vprintfmt+0x29c>
800016d0:	da9ff06f          	j	80001478 <vprintfmt+0x6c>
800016d4:	00100793          	li	a5,1
800016d8:	16b7cc63          	blt	a5,a1,80001850 <vprintfmt+0x444>
800016dc:	00812703          	lw	a4,8(sp)
800016e0:	00470793          	addi	a5,a4,4
800016e4:	18058663          	beqz	a1,80001870 <vprintfmt+0x464>
800016e8:	00072983          	lw	s3,0(a4)
800016ec:	00f12423          	sw	a5,8(sp)
800016f0:	41f9dc13          	srai	s8,s3,0x1f
800016f4:	180c4e63          	bltz	s8,80001890 <vprintfmt+0x484>
800016f8:	000c0d93          	mv	s11,s8
800016fc:	00012223          	sw	zero,4(sp)
80001700:	00a00c13          	li	s8,10
80001704:	ef9ff06f          	j	800015fc <vprintfmt+0x1f0>
80001708:	01000c13          	li	s8,16
8000170c:	00012223          	sw	zero,4(sp)
80001710:	00100793          	li	a5,1
80001714:	10b7c263          	blt	a5,a1,80001818 <vprintfmt+0x40c>
80001718:	00812783          	lw	a5,8(sp)
8000171c:	00478713          	addi	a4,a5,4
80001720:	ecdff06f          	j	800015ec <vprintfmt+0x1e0>
80001724:	00812783          	lw	a5,8(sp)
80001728:	0007ad83          	lw	s11,0(a5)
8000172c:	00478b13          	addi	s6,a5,4
80001730:	180d8463          	beqz	s11,800018b8 <vprintfmt+0x4ac>
80001734:	09405863          	blez	s4,800017c4 <vprintfmt+0x3b8>
80001738:	02d00793          	li	a5,45
8000173c:	04fb9e63          	bne	s7,a5,80001798 <vprintfmt+0x38c>
80001740:	000dc503          	lbu	a0,0(s11)
80001744:	02050863          	beqz	a0,80001774 <vprintfmt+0x368>
80001748:	fff00b93          	li	s7,-1
8000174c:	0009c663          	bltz	s3,80001758 <vprintfmt+0x34c>
80001750:	fff98993          	addi	s3,s3,-1
80001754:	01798e63          	beq	s3,s7,80001770 <vprintfmt+0x364>
80001758:	00048593          	mv	a1,s1
8000175c:	001d8d93          	addi	s11,s11,1
80001760:	000900e7          	jalr	s2
80001764:	000dc503          	lbu	a0,0(s11)
80001768:	fffa0a13          	addi	s4,s4,-1
8000176c:	fe0510e3          	bnez	a0,8000174c <vprintfmt+0x340>
80001770:	01405c63          	blez	s4,80001788 <vprintfmt+0x37c>
80001774:	fffa0a13          	addi	s4,s4,-1
80001778:	00048593          	mv	a1,s1
8000177c:	02000513          	li	a0,32
80001780:	000900e7          	jalr	s2
80001784:	fe0a18e3          	bnez	s4,80001774 <vprintfmt+0x368>
80001788:	01612423          	sw	s6,8(sp)
8000178c:	cedff06f          	j	80001478 <vprintfmt+0x6c>
80001790:	00002d97          	auipc	s11,0x2
80001794:	c50d8d93          	addi	s11,s11,-944 # 800033e0 <main+0x180>
80001798:	000d8793          	mv	a5,s11
8000179c:	013d86b3          	add	a3,s11,s3
800017a0:	00099863          	bnez	s3,800017b0 <vprintfmt+0x3a4>
800017a4:	1340006f          	j	800018d8 <vprintfmt+0x4cc>
800017a8:	00178793          	addi	a5,a5,1
800017ac:	00d78663          	beq	a5,a3,800017b8 <vprintfmt+0x3ac>
800017b0:	0007c703          	lbu	a4,0(a5)
800017b4:	fe071ae3          	bnez	a4,800017a8 <vprintfmt+0x39c>
800017b8:	41b787b3          	sub	a5,a5,s11
800017bc:	40fa0a33          	sub	s4,s4,a5
800017c0:	11404c63          	bgtz	s4,800018d8 <vprintfmt+0x4cc>
800017c4:	000dc503          	lbu	a0,0(s11)
800017c8:	fc0500e3          	beqz	a0,80001788 <vprintfmt+0x37c>
800017cc:	fff00b93          	li	s7,-1
800017d0:	f7dff06f          	j	8000174c <vprintfmt+0x340>
800017d4:	fffa4793          	not	a5,s4
800017d8:	41f7d793          	srai	a5,a5,0x1f
800017dc:	00174683          	lbu	a3,1(a4)
800017e0:	00fa7a33          	and	s4,s4,a5
800017e4:	00040713          	mv	a4,s0
800017e8:	cbdff06f          	j	800014a4 <vprintfmt+0x98>
800017ec:	00812783          	lw	a5,8(sp)
800017f0:	00048593          	mv	a1,s1
800017f4:	0007a503          	lw	a0,0(a5)
800017f8:	00478b13          	addi	s6,a5,4
800017fc:	000900e7          	jalr	s2
80001800:	01612423          	sw	s6,8(sp)
80001804:	c75ff06f          	j	80001478 <vprintfmt+0x6c>
80001808:	00174683          	lbu	a3,1(a4)
8000180c:	00158593          	addi	a1,a1,1
80001810:	00040713          	mv	a4,s0
80001814:	c91ff06f          	j	800014a4 <vprintfmt+0x98>
80001818:	00812783          	lw	a5,8(sp)
8000181c:	00778b13          	addi	s6,a5,7
80001820:	ff8b7b13          	andi	s6,s6,-8
80001824:	008b0793          	addi	a5,s6,8
80001828:	000b2983          	lw	s3,0(s6)
8000182c:	004b2d83          	lw	s11,4(s6)
80001830:	00f12423          	sw	a5,8(sp)
80001834:	dc9ff06f          	j	800015fc <vprintfmt+0x1f0>
80001838:	df89f4e3          	bgeu	s3,s8,80001620 <vprintfmt+0x214>
8000183c:	00100793          	li	a5,1
80001840:	00012023          	sw	zero,0(sp)
80001844:	00100d13          	li	s10,1
80001848:	e347c6e3          	blt	a5,s4,80001674 <vprintfmt+0x268>
8000184c:	e3dff06f          	j	80001688 <vprintfmt+0x27c>
80001850:	00812783          	lw	a5,8(sp)
80001854:	00778b13          	addi	s6,a5,7
80001858:	ff8b7b13          	andi	s6,s6,-8
8000185c:	008b0793          	addi	a5,s6,8
80001860:	000b2983          	lw	s3,0(s6)
80001864:	004b2c03          	lw	s8,4(s6)
80001868:	00f12423          	sw	a5,8(sp)
8000186c:	e89ff06f          	j	800016f4 <vprintfmt+0x2e8>
80001870:	00812703          	lw	a4,8(sp)
80001874:	e75ff06f          	j	800016e8 <vprintfmt+0x2dc>
80001878:	00800c13          	li	s8,8
8000187c:	00012223          	sw	zero,4(sp)
80001880:	e91ff06f          	j	80001710 <vprintfmt+0x304>
80001884:	00a00c13          	li	s8,10
80001888:	00012223          	sw	zero,4(sp)
8000188c:	e85ff06f          	j	80001710 <vprintfmt+0x304>
80001890:	00048593          	mv	a1,s1
80001894:	02d00513          	li	a0,45
80001898:	000900e7          	jalr	s2
8000189c:	01303733          	snez	a4,s3
800018a0:	418007b3          	neg	a5,s8
800018a4:	413009b3          	neg	s3,s3
800018a8:	40e78db3          	sub	s11,a5,a4
800018ac:	00a00c13          	li	s8,10
800018b0:	00012223          	sw	zero,4(sp)
800018b4:	d49ff06f          	j	800015fc <vprintfmt+0x1f0>
800018b8:	01405663          	blez	s4,800018c4 <vprintfmt+0x4b8>
800018bc:	02d00793          	li	a5,45
800018c0:	ecfb98e3          	bne	s7,a5,80001790 <vprintfmt+0x384>
800018c4:	00002d97          	auipc	s11,0x2
800018c8:	b1cd8d93          	addi	s11,s11,-1252 # 800033e0 <main+0x180>
800018cc:	02800513          	li	a0,40
800018d0:	fff00b93          	li	s7,-1
800018d4:	e79ff06f          	j	8000174c <vprintfmt+0x340>
800018d8:	fffa0a13          	addi	s4,s4,-1
800018dc:	00048593          	mv	a1,s1
800018e0:	000b8513          	mv	a0,s7
800018e4:	000900e7          	jalr	s2
800018e8:	ec0a0ee3          	beqz	s4,800017c4 <vprintfmt+0x3b8>
800018ec:	fffa0a13          	addi	s4,s4,-1
800018f0:	00048593          	mv	a1,s1
800018f4:	000b8513          	mv	a0,s7
800018f8:	000900e7          	jalr	s2
800018fc:	fc0a1ee3          	bnez	s4,800018d8 <vprintfmt+0x4cc>
80001900:	ec5ff06f          	j	800017c4 <vprintfmt+0x3b8>

80001904 <sprintf_putch.3054>:
80001904:	0005a783          	lw	a5,0(a1)
80001908:	00a78023          	sb	a0,0(a5)
8000190c:	0005a783          	lw	a5,0(a1)
80001910:	00178793          	addi	a5,a5,1
80001914:	00f5a023          	sw	a5,0(a1)
80001918:	00008067          	ret

8000191c <syscall.constprop.0>:
8000191c:	f8010113          	addi	sp,sp,-128
80001920:	03f10813          	addi	a6,sp,63
80001924:	fc087813          	andi	a6,a6,-64
80001928:	04000713          	li	a4,64
8000192c:	00e82023          	sw	a4,0(a6)
80001930:	00000793          	li	a5,0
80001934:	00f82223          	sw	a5,4(a6)
80001938:	00100713          	li	a4,1
8000193c:	00e82423          	sw	a4,8(a6)
80001940:	00000793          	li	a5,0
80001944:	00f82623          	sw	a5,12(a6)
80001948:	00a82823          	sw	a0,16(a6)
8000194c:	00b82a23          	sw	a1,20(a6)
80001950:	00c82c23          	sw	a2,24(a6)
80001954:	00d82e23          	sw	a3,28(a6)
80001958:	0ff0000f          	fence
8000195c:	fffff697          	auipc	a3,0xfffff
80001960:	6a468693          	addi	a3,a3,1700 # 80001000 <tohost>
80001964:	0106a023          	sw	a6,0(a3)
80001968:	00000793          	li	a5,0
8000196c:	00f6a223          	sw	a5,4(a3)
80001970:	fffff697          	auipc	a3,0xfffff
80001974:	6d068693          	addi	a3,a3,1744 # 80001040 <fromhost>
80001978:	0006a703          	lw	a4,0(a3)
8000197c:	0046a783          	lw	a5,4(a3)
80001980:	00f76733          	or	a4,a4,a5
80001984:	fe070ae3          	beqz	a4,80001978 <syscall.constprop.0+0x5c>
80001988:	00000713          	li	a4,0
8000198c:	00e6a023          	sw	a4,0(a3)
80001990:	00000793          	li	a5,0
80001994:	00f6a223          	sw	a5,4(a3)
80001998:	0ff0000f          	fence
8000199c:	00082503          	lw	a0,0(a6)
800019a0:	00482583          	lw	a1,4(a6)
800019a4:	08010113          	addi	sp,sp,128
800019a8:	00008067          	ret

800019ac <putchar>:
800019ac:	ff010113          	addi	sp,sp,-16
800019b0:	00812423          	sw	s0,8(sp)
800019b4:	04022583          	lw	a1,64(tp) # 40 <buflen.2940>
800019b8:	00020793          	mv	a5,tp
800019bc:	00112623          	sw	ra,12(sp)
800019c0:	00b787b3          	add	a5,a5,a1
800019c4:	00158613          	addi	a2,a1,1
800019c8:	00a78023          	sb	a0,0(a5)
800019cc:	04c22023          	sw	a2,64(tp) # 40 <buflen.2940>
800019d0:	00a00793          	li	a5,10
800019d4:	02f50063          	beq	a0,a5,800019f4 <putchar+0x48>
800019d8:	04000793          	li	a5,64
800019dc:	00f60c63          	beq	a2,a5,800019f4 <putchar+0x48>
800019e0:	00c12083          	lw	ra,12(sp)
800019e4:	00812403          	lw	s0,8(sp)
800019e8:	00000513          	li	a0,0
800019ec:	01010113          	addi	sp,sp,16
800019f0:	00008067          	ret
800019f4:	41f65693          	srai	a3,a2,0x1f
800019f8:	00020513          	mv	a0,tp
800019fc:	00000593          	li	a1,0
80001a00:	f1dff0ef          	jal	ra,8000191c <syscall.constprop.0>
80001a04:	00c12083          	lw	ra,12(sp)
80001a08:	04022023          	sw	zero,64(tp) # 40 <buflen.2940>
80001a0c:	00812403          	lw	s0,8(sp)
80001a10:	00000513          	li	a0,0
80001a14:	01010113          	addi	sp,sp,16
80001a18:	00008067          	ret

80001a1c <setStats>:
80001a1c:	b0002773          	csrr	a4,mcycle
80001a20:	00002797          	auipc	a5,0x2
80001a24:	d6c78793          	addi	a5,a5,-660 # 8000378c <counters>
80001a28:	00051e63          	bnez	a0,80001a44 <setStats+0x28>
80001a2c:	0007a683          	lw	a3,0(a5)
80001a30:	00002617          	auipc	a2,0x2
80001a34:	9b860613          	addi	a2,a2,-1608 # 800033e8 <main+0x188>
80001a38:	00002597          	auipc	a1,0x2
80001a3c:	d4c5a623          	sw	a2,-692(a1) # 80003784 <counter_names>
80001a40:	40d70733          	sub	a4,a4,a3
80001a44:	00e7a023          	sw	a4,0(a5)
80001a48:	b0202773          	csrr	a4,minstret
80001a4c:	00051e63          	bnez	a0,80001a68 <setStats+0x4c>
80001a50:	0047a683          	lw	a3,4(a5)
80001a54:	00002617          	auipc	a2,0x2
80001a58:	99c60613          	addi	a2,a2,-1636 # 800033f0 <main+0x190>
80001a5c:	00002597          	auipc	a1,0x2
80001a60:	d2c5a623          	sw	a2,-724(a1) # 80003788 <counter_names+0x4>
80001a64:	40d70733          	sub	a4,a4,a3
80001a68:	00e7a223          	sw	a4,4(a5)
80001a6c:	00008067          	ret

80001a70 <tohost_exit>:
80001a70:	00151693          	slli	a3,a0,0x1
80001a74:	0016e713          	ori	a4,a3,1
80001a78:	fffff697          	auipc	a3,0xfffff
80001a7c:	58868693          	addi	a3,a3,1416 # 80001000 <tohost>
80001a80:	00000793          	li	a5,0
80001a84:	00e6a023          	sw	a4,0(a3)
80001a88:	00f6a223          	sw	a5,4(a3)
80001a8c:	0000006f          	j	80001a8c <tohost_exit+0x1c>

80001a90 <handle_trap>:
80001a90:	00001637          	lui	a2,0x1
80001a94:	fffff797          	auipc	a5,0xfffff
80001a98:	56c78793          	addi	a5,a5,1388 # 80001000 <tohost>
80001a9c:	a7360613          	addi	a2,a2,-1421 # a73 <buflen.2940+0xa33>
80001aa0:	00000693          	li	a3,0
80001aa4:	00c7a023          	sw	a2,0(a5)
80001aa8:	00d7a223          	sw	a3,4(a5)
80001aac:	0000006f          	j	80001aac <handle_trap+0x1c>

80001ab0 <exit>:
80001ab0:	ff010113          	addi	sp,sp,-16
80001ab4:	00112623          	sw	ra,12(sp)
80001ab8:	fb9ff0ef          	jal	ra,80001a70 <tohost_exit>

80001abc <abort>:
80001abc:	fffff797          	auipc	a5,0xfffff
80001ac0:	54478793          	addi	a5,a5,1348 # 80001000 <tohost>
80001ac4:	10d00613          	li	a2,269
80001ac8:	00000693          	li	a3,0
80001acc:	00c7a023          	sw	a2,0(a5)
80001ad0:	00d7a223          	sw	a3,4(a5)
80001ad4:	0000006f          	j	80001ad4 <abort+0x18>

80001ad8 <printstr>:
80001ad8:	00054783          	lbu	a5,0(a0)
80001adc:	02078263          	beqz	a5,80001b00 <printstr+0x28>
80001ae0:	00050613          	mv	a2,a0
80001ae4:	00164783          	lbu	a5,1(a2)
80001ae8:	00160613          	addi	a2,a2,1
80001aec:	fe079ce3          	bnez	a5,80001ae4 <printstr+0xc>
80001af0:	40a60633          	sub	a2,a2,a0
80001af4:	00000693          	li	a3,0
80001af8:	00000593          	li	a1,0
80001afc:	e21ff06f          	j	8000191c <syscall.constprop.0>
80001b00:	00000613          	li	a2,0
80001b04:	00000693          	li	a3,0
80001b08:	00000593          	li	a1,0
80001b0c:	e11ff06f          	j	8000191c <syscall.constprop.0>

80001b10 <thread_entry>:
80001b10:	00051063          	bnez	a0,80001b10 <thread_entry>
80001b14:	00008067          	ret

80001b18 <printhex>:
80001b18:	fd010113          	addi	sp,sp,-48
80001b1c:	00050793          	mv	a5,a0
80001b20:	02112623          	sw	ra,44(sp)
80001b24:	00c10513          	addi	a0,sp,12
80001b28:	01b10713          	addi	a4,sp,27
80001b2c:	00900313          	li	t1,9
80001b30:	0080006f          	j	80001b38 <printhex+0x20>
80001b34:	00068713          	mv	a4,a3
80001b38:	00f7f893          	andi	a7,a5,15
80001b3c:	0047d613          	srli	a2,a5,0x4
80001b40:	01c59813          	slli	a6,a1,0x1c
80001b44:	00088793          	mv	a5,a7
80001b48:	05700693          	li	a3,87
80001b4c:	01136463          	bltu	t1,a7,80001b54 <printhex+0x3c>
80001b50:	03000693          	li	a3,48
80001b54:	00d787b3          	add	a5,a5,a3
80001b58:	00f70023          	sb	a5,0(a4)
80001b5c:	fff70693          	addi	a3,a4,-1
80001b60:	00c867b3          	or	a5,a6,a2
80001b64:	0045d593          	srli	a1,a1,0x4
80001b68:	fce516e3          	bne	a0,a4,80001b34 <printhex+0x1c>
80001b6c:	00010e23          	sb	zero,28(sp)
80001b70:	f69ff0ef          	jal	ra,80001ad8 <printstr>
80001b74:	02c12083          	lw	ra,44(sp)
80001b78:	03010113          	addi	sp,sp,48
80001b7c:	00008067          	ret

80001b80 <printf>:
80001b80:	fc010113          	addi	sp,sp,-64
80001b84:	02410313          	addi	t1,sp,36
80001b88:	00050e13          	mv	t3,a0
80001b8c:	02b12223          	sw	a1,36(sp)
80001b90:	02c12423          	sw	a2,40(sp)
80001b94:	02d12623          	sw	a3,44(sp)
80001b98:	00000517          	auipc	a0,0x0
80001b9c:	e1450513          	addi	a0,a0,-492 # 800019ac <putchar>
80001ba0:	00030693          	mv	a3,t1
80001ba4:	000e0613          	mv	a2,t3
80001ba8:	00000593          	li	a1,0
80001bac:	00112e23          	sw	ra,28(sp)
80001bb0:	02e12823          	sw	a4,48(sp)
80001bb4:	02f12a23          	sw	a5,52(sp)
80001bb8:	03012c23          	sw	a6,56(sp)
80001bbc:	03112e23          	sw	a7,60(sp)
80001bc0:	00612623          	sw	t1,12(sp)
80001bc4:	849ff0ef          	jal	ra,8000140c <vprintfmt>
80001bc8:	01c12083          	lw	ra,28(sp)
80001bcc:	00000513          	li	a0,0
80001bd0:	04010113          	addi	sp,sp,64
80001bd4:	00008067          	ret

80001bd8 <sprintf>:
80001bd8:	fb010113          	addi	sp,sp,-80
80001bdc:	03810313          	addi	t1,sp,56
80001be0:	02812423          	sw	s0,40(sp)
80001be4:	00a12623          	sw	a0,12(sp)
80001be8:	02c12c23          	sw	a2,56(sp)
80001bec:	02d12e23          	sw	a3,60(sp)
80001bf0:	00050413          	mv	s0,a0
80001bf4:	00058613          	mv	a2,a1
80001bf8:	00000517          	auipc	a0,0x0
80001bfc:	d0c50513          	addi	a0,a0,-756 # 80001904 <sprintf_putch.3054>
80001c00:	00c10593          	addi	a1,sp,12
80001c04:	00030693          	mv	a3,t1
80001c08:	02112623          	sw	ra,44(sp)
80001c0c:	04f12223          	sw	a5,68(sp)
80001c10:	04e12023          	sw	a4,64(sp)
80001c14:	05012423          	sw	a6,72(sp)
80001c18:	05112623          	sw	a7,76(sp)
80001c1c:	00612e23          	sw	t1,28(sp)
80001c20:	fecff0ef          	jal	ra,8000140c <vprintfmt>
80001c24:	00c12783          	lw	a5,12(sp)
80001c28:	00078023          	sb	zero,0(a5)
80001c2c:	00c12503          	lw	a0,12(sp)
80001c30:	02c12083          	lw	ra,44(sp)
80001c34:	40850533          	sub	a0,a0,s0
80001c38:	02812403          	lw	s0,40(sp)
80001c3c:	05010113          	addi	sp,sp,80
80001c40:	00008067          	ret

80001c44 <memcpy>:
80001c44:	00c5e7b3          	or	a5,a1,a2
80001c48:	00f567b3          	or	a5,a0,a5
80001c4c:	0037f793          	andi	a5,a5,3
80001c50:	00c506b3          	add	a3,a0,a2
80001c54:	02078463          	beqz	a5,80001c7c <memcpy+0x38>
80001c58:	00c58633          	add	a2,a1,a2
80001c5c:	00050793          	mv	a5,a0
80001c60:	02d57e63          	bgeu	a0,a3,80001c9c <memcpy+0x58>
80001c64:	0005c703          	lbu	a4,0(a1)
80001c68:	00158593          	addi	a1,a1,1
80001c6c:	00178793          	addi	a5,a5,1
80001c70:	fee78fa3          	sb	a4,-1(a5)
80001c74:	feb618e3          	bne	a2,a1,80001c64 <memcpy+0x20>
80001c78:	00008067          	ret
80001c7c:	fed57ee3          	bgeu	a0,a3,80001c78 <memcpy+0x34>
80001c80:	00050793          	mv	a5,a0
80001c84:	0005a703          	lw	a4,0(a1)
80001c88:	00478793          	addi	a5,a5,4
80001c8c:	00458593          	addi	a1,a1,4
80001c90:	fee7ae23          	sw	a4,-4(a5)
80001c94:	fed7e8e3          	bltu	a5,a3,80001c84 <memcpy+0x40>
80001c98:	00008067          	ret
80001c9c:	00008067          	ret

80001ca0 <memset>:
80001ca0:	00c567b3          	or	a5,a0,a2
80001ca4:	0037f793          	andi	a5,a5,3
80001ca8:	00c50633          	add	a2,a0,a2
80001cac:	02078063          	beqz	a5,80001ccc <memset+0x2c>
80001cb0:	0ff5f593          	andi	a1,a1,255
80001cb4:	00050793          	mv	a5,a0
80001cb8:	04c57063          	bgeu	a0,a2,80001cf8 <memset+0x58>
80001cbc:	00178793          	addi	a5,a5,1
80001cc0:	feb78fa3          	sb	a1,-1(a5)
80001cc4:	fef61ce3          	bne	a2,a5,80001cbc <memset+0x1c>
80001cc8:	00008067          	ret
80001ccc:	0ff5f593          	andi	a1,a1,255
80001cd0:	00859713          	slli	a4,a1,0x8
80001cd4:	00e5e733          	or	a4,a1,a4
80001cd8:	01071793          	slli	a5,a4,0x10
80001cdc:	00f76733          	or	a4,a4,a5
80001ce0:	fec574e3          	bgeu	a0,a2,80001cc8 <memset+0x28>
80001ce4:	00050793          	mv	a5,a0
80001ce8:	00478793          	addi	a5,a5,4
80001cec:	fee7ae23          	sw	a4,-4(a5)
80001cf0:	fec7ece3          	bltu	a5,a2,80001ce8 <memset+0x48>
80001cf4:	00008067          	ret
80001cf8:	00008067          	ret

80001cfc <_init>:
80001cfc:	f6010113          	addi	sp,sp,-160
80001d00:	85018793          	addi	a5,gp,-1968 # 800037cc <_tdata_begin>
80001d04:	09412423          	sw	s4,136(sp)
80001d08:	85018a13          	addi	s4,gp,-1968 # 800037cc <_tdata_begin>
80001d0c:	09312623          	sw	s3,140(sp)
80001d10:	40fa09b3          	sub	s3,s4,a5
80001d14:	08912a23          	sw	s1,148(sp)
80001d18:	09212823          	sw	s2,144(sp)
80001d1c:	00050493          	mv	s1,a0
80001d20:	00058913          	mv	s2,a1
80001d24:	00020513          	mv	a0,tp
80001d28:	00078593          	mv	a1,a5
80001d2c:	00098613          	mv	a2,s3
80001d30:	08112e23          	sw	ra,156(sp)
80001d34:	08812c23          	sw	s0,152(sp)
80001d38:	09512223          	sw	s5,132(sp)
80001d3c:	00020a93          	mv	s5,tp
80001d40:	f05ff0ef          	jal	ra,80001c44 <memcpy>
80001d44:	8c818613          	addi	a2,gp,-1848 # 80003844 <_tbss_end>
80001d48:	41460633          	sub	a2,a2,s4
80001d4c:	00000593          	li	a1,0
80001d50:	013a8533          	add	a0,s5,s3
80001d54:	f4dff0ef          	jal	ra,80001ca0 <memset>
80001d58:	00090593          	mv	a1,s2
80001d5c:	00048513          	mv	a0,s1
80001d60:	db1ff0ef          	jal	ra,80001b10 <thread_entry>
80001d64:	00000593          	li	a1,0
80001d68:	00000513          	li	a0,0
80001d6c:	4f4010ef          	jal	ra,80003260 <main>
80001d70:	00002917          	auipc	s2,0x2
80001d74:	a1c90913          	addi	s2,s2,-1508 # 8000378c <counters>
80001d78:	00092683          	lw	a3,0(s2)
80001d7c:	03f10413          	addi	s0,sp,63
80001d80:	fc047413          	andi	s0,s0,-64
80001d84:	00050493          	mv	s1,a0
80001d88:	04069463          	bnez	a3,80001dd0 <_init+0xd4>
80001d8c:	00492683          	lw	a3,4(s2)
80001d90:	00069663          	bnez	a3,80001d9c <_init+0xa0>
80001d94:	00048513          	mv	a0,s1
80001d98:	cd9ff0ef          	jal	ra,80001a70 <tohost_exit>
80001d9c:	00040913          	mv	s2,s0
80001da0:	00002997          	auipc	s3,0x2
80001da4:	9e498993          	addi	s3,s3,-1564 # 80003784 <counter_names>
80001da8:	0049a603          	lw	a2,4(s3)
80001dac:	00090513          	mv	a0,s2
80001db0:	00001597          	auipc	a1,0x1
80001db4:	66458593          	addi	a1,a1,1636 # 80003414 <main+0x1b4>
80001db8:	e21ff0ef          	jal	ra,80001bd8 <sprintf>
80001dbc:	00a90933          	add	s2,s2,a0
80001dc0:	fd240ae3          	beq	s0,s2,80001d94 <_init+0x98>
80001dc4:	00040513          	mv	a0,s0
80001dc8:	d11ff0ef          	jal	ra,80001ad8 <printstr>
80001dcc:	fc9ff06f          	j	80001d94 <_init+0x98>
80001dd0:	00002997          	auipc	s3,0x2
80001dd4:	9b498993          	addi	s3,s3,-1612 # 80003784 <counter_names>
80001dd8:	0009a603          	lw	a2,0(s3)
80001ddc:	00001597          	auipc	a1,0x1
80001de0:	63858593          	addi	a1,a1,1592 # 80003414 <main+0x1b4>
80001de4:	00040513          	mv	a0,s0
80001de8:	df1ff0ef          	jal	ra,80001bd8 <sprintf>
80001dec:	00492683          	lw	a3,4(s2)
80001df0:	00a40933          	add	s2,s0,a0
80001df4:	fc0686e3          	beqz	a3,80001dc0 <_init+0xc4>
80001df8:	fb1ff06f          	j	80001da8 <_init+0xac>

80001dfc <strlen>:
80001dfc:	00054783          	lbu	a5,0(a0)
80001e00:	00078e63          	beqz	a5,80001e1c <strlen+0x20>
80001e04:	00050793          	mv	a5,a0
80001e08:	0017c703          	lbu	a4,1(a5)
80001e0c:	00178793          	addi	a5,a5,1
80001e10:	fe071ce3          	bnez	a4,80001e08 <strlen+0xc>
80001e14:	40a78533          	sub	a0,a5,a0
80001e18:	00008067          	ret
80001e1c:	00000513          	li	a0,0
80001e20:	00008067          	ret

80001e24 <strnlen>:
80001e24:	00050613          	mv	a2,a0
80001e28:	00b606b3          	add	a3,a2,a1
80001e2c:	00058513          	mv	a0,a1
80001e30:	00060793          	mv	a5,a2
80001e34:	00059863          	bnez	a1,80001e44 <strnlen+0x20>
80001e38:	01c0006f          	j	80001e54 <strnlen+0x30>
80001e3c:	00178793          	addi	a5,a5,1
80001e40:	00f68863          	beq	a3,a5,80001e50 <strnlen+0x2c>
80001e44:	0007c703          	lbu	a4,0(a5)
80001e48:	fe071ae3          	bnez	a4,80001e3c <strnlen+0x18>
80001e4c:	40c78533          	sub	a0,a5,a2
80001e50:	00008067          	ret
80001e54:	00008067          	ret

80001e58 <strcmp>:
80001e58:	00054783          	lbu	a5,0(a0)
80001e5c:	00158593          	addi	a1,a1,1
80001e60:	00150513          	addi	a0,a0,1
80001e64:	fff5c703          	lbu	a4,-1(a1)
80001e68:	00078863          	beqz	a5,80001e78 <strcmp+0x20>
80001e6c:	fee786e3          	beq	a5,a4,80001e58 <strcmp>
80001e70:	40e78533          	sub	a0,a5,a4
80001e74:	00008067          	ret
80001e78:	00000793          	li	a5,0
80001e7c:	ff5ff06f          	j	80001e70 <strcmp+0x18>

80001e80 <strcpy>:
80001e80:	00050793          	mv	a5,a0
80001e84:	0005c703          	lbu	a4,0(a1)
80001e88:	00178793          	addi	a5,a5,1
80001e8c:	00158593          	addi	a1,a1,1
80001e90:	fee78fa3          	sb	a4,-1(a5)
80001e94:	fe0718e3          	bnez	a4,80001e84 <strcpy+0x4>
80001e98:	00008067          	ret

80001e9c <atol>:
80001e9c:	00054703          	lbu	a4,0(a0)
80001ea0:	02000693          	li	a3,32
80001ea4:	00050793          	mv	a5,a0
80001ea8:	00d71863          	bne	a4,a3,80001eb8 <atol+0x1c>
80001eac:	0017c703          	lbu	a4,1(a5)
80001eb0:	00178793          	addi	a5,a5,1
80001eb4:	fed70ce3          	beq	a4,a3,80001eac <atol+0x10>
80001eb8:	02d00693          	li	a3,45
80001ebc:	06d70063          	beq	a4,a3,80001f1c <atol+0x80>
80001ec0:	02b00693          	li	a3,43
80001ec4:	04d70063          	beq	a4,a3,80001f04 <atol+0x68>
80001ec8:	0007c683          	lbu	a3,0(a5)
80001ecc:	00000593          	li	a1,0
80001ed0:	04068263          	beqz	a3,80001f14 <atol+0x78>
80001ed4:	00000513          	li	a0,0
80001ed8:	00178793          	addi	a5,a5,1
80001edc:	fd068613          	addi	a2,a3,-48
80001ee0:	00251713          	slli	a4,a0,0x2
80001ee4:	0007c683          	lbu	a3,0(a5)
80001ee8:	00a70533          	add	a0,a4,a0
80001eec:	00151513          	slli	a0,a0,0x1
80001ef0:	00a60533          	add	a0,a2,a0
80001ef4:	fe0692e3          	bnez	a3,80001ed8 <atol+0x3c>
80001ef8:	02058063          	beqz	a1,80001f18 <atol+0x7c>
80001efc:	40a00533          	neg	a0,a0
80001f00:	00008067          	ret
80001f04:	0017c683          	lbu	a3,1(a5)
80001f08:	00000593          	li	a1,0
80001f0c:	00178793          	addi	a5,a5,1
80001f10:	fc0692e3          	bnez	a3,80001ed4 <atol+0x38>
80001f14:	00000513          	li	a0,0
80001f18:	00008067          	ret
80001f1c:	0017c683          	lbu	a3,1(a5)
80001f20:	00100593          	li	a1,1
80001f24:	00178793          	addi	a5,a5,1
80001f28:	fa0696e3          	bnez	a3,80001ed4 <atol+0x38>
80001f2c:	00000513          	li	a0,0
80001f30:	fe9ff06f          	j	80001f18 <atol+0x7c>

80001f34 <__moddi3>:
80001f34:	fc010113          	addi	sp,sp,-64
80001f38:	02812c23          	sw	s0,56(sp)
80001f3c:	02912a23          	sw	s1,52(sp)
80001f40:	03212823          	sw	s2,48(sp)
80001f44:	02112e23          	sw	ra,60(sp)
80001f48:	03312623          	sw	s3,44(sp)
80001f4c:	03412423          	sw	s4,40(sp)
80001f50:	03512223          	sw	s5,36(sp)
80001f54:	03612023          	sw	s6,32(sp)
80001f58:	01712e23          	sw	s7,28(sp)
80001f5c:	01812c23          	sw	s8,24(sp)
80001f60:	01912a23          	sw	s9,20(sp)
80001f64:	01a12823          	sw	s10,16(sp)
80001f68:	01b12623          	sw	s11,12(sp)
80001f6c:	00058493          	mv	s1,a1
80001f70:	00050413          	mv	s0,a0
80001f74:	00000913          	li	s2,0
80001f78:	1605ce63          	bltz	a1,800020f4 <__moddi3+0x1c0>
80001f7c:	0006da63          	bgez	a3,80001f90 <__moddi3+0x5c>
80001f80:	00c039b3          	snez	s3,a2
80001f84:	40d007b3          	neg	a5,a3
80001f88:	413786b3          	sub	a3,a5,s3
80001f8c:	40c00633          	neg	a2,a2
80001f90:	00068993          	mv	s3,a3
80001f94:	00060a93          	mv	s5,a2
80001f98:	00040a13          	mv	s4,s0
80001f9c:	00048b93          	mv	s7,s1
80001fa0:	14069263          	bnez	a3,800020e4 <__moddi3+0x1b0>
80001fa4:	1cc4f063          	bgeu	s1,a2,80002164 <__moddi3+0x230>
80001fa8:	000107b7          	lui	a5,0x10
80001fac:	2cf66463          	bltu	a2,a5,80002274 <__moddi3+0x340>
80001fb0:	010007b7          	lui	a5,0x1000
80001fb4:	58f66a63          	bltu	a2,a5,80002548 <__moddi3+0x614>
80001fb8:	01865713          	srli	a4,a2,0x18
80001fbc:	01800993          	li	s3,24
80001fc0:	800037b7          	lui	a5,0x80003
80001fc4:	57878793          	addi	a5,a5,1400 # 80003578 <__global_pointer$+0xfffff5fc>
80001fc8:	00e787b3          	add	a5,a5,a4
80001fcc:	0007c783          	lbu	a5,0(a5)
80001fd0:	02000713          	li	a4,32
80001fd4:	013787b3          	add	a5,a5,s3
80001fd8:	40f709b3          	sub	s3,a4,a5
80001fdc:	00f70c63          	beq	a4,a5,80001ff4 <__moddi3+0xc0>
80001fe0:	013494b3          	sll	s1,s1,s3
80001fe4:	00f45bb3          	srl	s7,s0,a5
80001fe8:	01361ab3          	sll	s5,a2,s3
80001fec:	009bebb3          	or	s7,s7,s1
80001ff0:	01341a33          	sll	s4,s0,s3
80001ff4:	010adc13          	srli	s8,s5,0x10
80001ff8:	000c0593          	mv	a1,s8
80001ffc:	000b8513          	mv	a0,s7
80002000:	1fc010ef          	jal	ra,800031fc <__umodsi3>
80002004:	00050493          	mv	s1,a0
80002008:	000c0593          	mv	a1,s8
8000200c:	010a9b13          	slli	s6,s5,0x10
80002010:	000b8513          	mv	a0,s7
80002014:	1a0010ef          	jal	ra,800031b4 <__udivsi3>
80002018:	010b5b13          	srli	s6,s6,0x10
8000201c:	00050593          	mv	a1,a0
80002020:	000b0513          	mv	a0,s6
80002024:	164010ef          	jal	ra,80003188 <__mulsi3>
80002028:	01049493          	slli	s1,s1,0x10
8000202c:	010a5793          	srli	a5,s4,0x10
80002030:	00f4e7b3          	or	a5,s1,a5
80002034:	00a7fa63          	bgeu	a5,a0,80002048 <__moddi3+0x114>
80002038:	015787b3          	add	a5,a5,s5
8000203c:	0157e663          	bltu	a5,s5,80002048 <__moddi3+0x114>
80002040:	00a7f463          	bgeu	a5,a0,80002048 <__moddi3+0x114>
80002044:	015787b3          	add	a5,a5,s5
80002048:	40a78433          	sub	s0,a5,a0
8000204c:	000c0593          	mv	a1,s8
80002050:	00040513          	mv	a0,s0
80002054:	1a8010ef          	jal	ra,800031fc <__umodsi3>
80002058:	00050493          	mv	s1,a0
8000205c:	000c0593          	mv	a1,s8
80002060:	00040513          	mv	a0,s0
80002064:	150010ef          	jal	ra,800031b4 <__udivsi3>
80002068:	00050593          	mv	a1,a0
8000206c:	000b0513          	mv	a0,s6
80002070:	118010ef          	jal	ra,80003188 <__mulsi3>
80002074:	010a1793          	slli	a5,s4,0x10
80002078:	01049493          	slli	s1,s1,0x10
8000207c:	0107d793          	srli	a5,a5,0x10
80002080:	00f4e7b3          	or	a5,s1,a5
80002084:	1aa7ec63          	bltu	a5,a0,8000223c <__moddi3+0x308>
80002088:	40a78533          	sub	a0,a5,a0
8000208c:	01355533          	srl	a0,a0,s3
80002090:	00000593          	li	a1,0
80002094:	00090a63          	beqz	s2,800020a8 <__moddi3+0x174>
80002098:	00a03433          	snez	s0,a0
8000209c:	40b004b3          	neg	s1,a1
800020a0:	408485b3          	sub	a1,s1,s0
800020a4:	40a00533          	neg	a0,a0
800020a8:	03c12083          	lw	ra,60(sp)
800020ac:	03812403          	lw	s0,56(sp)
800020b0:	03412483          	lw	s1,52(sp)
800020b4:	03012903          	lw	s2,48(sp)
800020b8:	02c12983          	lw	s3,44(sp)
800020bc:	02812a03          	lw	s4,40(sp)
800020c0:	02412a83          	lw	s5,36(sp)
800020c4:	02012b03          	lw	s6,32(sp)
800020c8:	01c12b83          	lw	s7,28(sp)
800020cc:	01812c03          	lw	s8,24(sp)
800020d0:	01412c83          	lw	s9,20(sp)
800020d4:	01012d03          	lw	s10,16(sp)
800020d8:	00c12d83          	lw	s11,12(sp)
800020dc:	04010113          	addi	sp,sp,64
800020e0:	00008067          	ret
800020e4:	00040513          	mv	a0,s0
800020e8:	02d4f263          	bgeu	s1,a3,8000210c <__moddi3+0x1d8>
800020ec:	00048593          	mv	a1,s1
800020f0:	fa5ff06f          	j	80002094 <__moddi3+0x160>
800020f4:	00a037b3          	snez	a5,a0
800020f8:	40b004b3          	neg	s1,a1
800020fc:	40f484b3          	sub	s1,s1,a5
80002100:	40a00433          	neg	s0,a0
80002104:	fff00913          	li	s2,-1
80002108:	e75ff06f          	j	80001f7c <__moddi3+0x48>
8000210c:	000107b7          	lui	a5,0x10
80002110:	16f6ee63          	bltu	a3,a5,8000228c <__moddi3+0x358>
80002114:	010007b7          	lui	a5,0x1000
80002118:	40f6e663          	bltu	a3,a5,80002524 <__moddi3+0x5f0>
8000211c:	0186d593          	srli	a1,a3,0x18
80002120:	01800713          	li	a4,24
80002124:	800037b7          	lui	a5,0x80003
80002128:	57878793          	addi	a5,a5,1400 # 80003578 <__global_pointer$+0xfffff5fc>
8000212c:	00b787b3          	add	a5,a5,a1
80002130:	0007cb03          	lbu	s6,0(a5)
80002134:	02000793          	li	a5,32
80002138:	00eb0b33          	add	s6,s6,a4
8000213c:	41678a33          	sub	s4,a5,s6
80002140:	17679063          	bne	a5,s6,800022a0 <__moddi3+0x36c>
80002144:	0096e463          	bltu	a3,s1,8000214c <__moddi3+0x218>
80002148:	fac462e3          	bltu	s0,a2,800020ec <__moddi3+0x1b8>
8000214c:	40c40533          	sub	a0,s0,a2
80002150:	40d484b3          	sub	s1,s1,a3
80002154:	00a43433          	sltu	s0,s0,a0
80002158:	408484b3          	sub	s1,s1,s0
8000215c:	00048593          	mv	a1,s1
80002160:	f35ff06f          	j	80002094 <__moddi3+0x160>
80002164:	00061a63          	bnez	a2,80002178 <__moddi3+0x244>
80002168:	00000593          	li	a1,0
8000216c:	00100513          	li	a0,1
80002170:	044010ef          	jal	ra,800031b4 <__udivsi3>
80002174:	00050a93          	mv	s5,a0
80002178:	000107b7          	lui	a5,0x10
8000217c:	0efae063          	bltu	s5,a5,8000225c <__moddi3+0x328>
80002180:	010007b7          	lui	a5,0x1000
80002184:	3afae663          	bltu	s5,a5,80002530 <__moddi3+0x5fc>
80002188:	018ad713          	srli	a4,s5,0x18
8000218c:	01800993          	li	s3,24
80002190:	800037b7          	lui	a5,0x80003
80002194:	57878793          	addi	a5,a5,1400 # 80003578 <__global_pointer$+0xfffff5fc>
80002198:	00e787b3          	add	a5,a5,a4
8000219c:	0007c783          	lbu	a5,0(a5)
800021a0:	02000713          	li	a4,32
800021a4:	013787b3          	add	a5,a5,s3
800021a8:	40f709b3          	sub	s3,a4,a5
800021ac:	28f71c63          	bne	a4,a5,80002444 <__moddi3+0x510>
800021b0:	010a9b13          	slli	s6,s5,0x10
800021b4:	41548433          	sub	s0,s1,s5
800021b8:	010adc13          	srli	s8,s5,0x10
800021bc:	010b5b13          	srli	s6,s6,0x10
800021c0:	000c0593          	mv	a1,s8
800021c4:	00040513          	mv	a0,s0
800021c8:	034010ef          	jal	ra,800031fc <__umodsi3>
800021cc:	00050493          	mv	s1,a0
800021d0:	000c0593          	mv	a1,s8
800021d4:	00040513          	mv	a0,s0
800021d8:	7dd000ef          	jal	ra,800031b4 <__udivsi3>
800021dc:	000b0593          	mv	a1,s6
800021e0:	7a9000ef          	jal	ra,80003188 <__mulsi3>
800021e4:	01049493          	slli	s1,s1,0x10
800021e8:	010a5793          	srli	a5,s4,0x10
800021ec:	00f4e7b3          	or	a5,s1,a5
800021f0:	00a7f863          	bgeu	a5,a0,80002200 <__moddi3+0x2cc>
800021f4:	015787b3          	add	a5,a5,s5
800021f8:	0157e463          	bltu	a5,s5,80002200 <__moddi3+0x2cc>
800021fc:	36a7e463          	bltu	a5,a0,80002564 <__moddi3+0x630>
80002200:	40a78433          	sub	s0,a5,a0
80002204:	000c0593          	mv	a1,s8
80002208:	00040513          	mv	a0,s0
8000220c:	7f1000ef          	jal	ra,800031fc <__umodsi3>
80002210:	00050493          	mv	s1,a0
80002214:	000c0593          	mv	a1,s8
80002218:	00040513          	mv	a0,s0
8000221c:	799000ef          	jal	ra,800031b4 <__udivsi3>
80002220:	000b0593          	mv	a1,s6
80002224:	010a1a13          	slli	s4,s4,0x10
80002228:	761000ef          	jal	ra,80003188 <__mulsi3>
8000222c:	01049493          	slli	s1,s1,0x10
80002230:	010a5a13          	srli	s4,s4,0x10
80002234:	0144e7b3          	or	a5,s1,s4
80002238:	00a7fa63          	bgeu	a5,a0,8000224c <__moddi3+0x318>
8000223c:	015787b3          	add	a5,a5,s5
80002240:	0157e663          	bltu	a5,s5,8000224c <__moddi3+0x318>
80002244:	00a7f463          	bgeu	a5,a0,8000224c <__moddi3+0x318>
80002248:	015787b3          	add	a5,a5,s5
8000224c:	40a78533          	sub	a0,a5,a0
80002250:	01355533          	srl	a0,a0,s3
80002254:	00000593          	li	a1,0
80002258:	e3dff06f          	j	80002094 <__moddi3+0x160>
8000225c:	0ff00793          	li	a5,255
80002260:	000a8713          	mv	a4,s5
80002264:	f357f6e3          	bgeu	a5,s5,80002190 <__moddi3+0x25c>
80002268:	008ad713          	srli	a4,s5,0x8
8000226c:	00800993          	li	s3,8
80002270:	f21ff06f          	j	80002190 <__moddi3+0x25c>
80002274:	0ff00793          	li	a5,255
80002278:	00060713          	mv	a4,a2
8000227c:	d4c7f2e3          	bgeu	a5,a2,80001fc0 <__moddi3+0x8c>
80002280:	00865713          	srli	a4,a2,0x8
80002284:	00800993          	li	s3,8
80002288:	d39ff06f          	j	80001fc0 <__moddi3+0x8c>
8000228c:	0ff00793          	li	a5,255
80002290:	2ad7f663          	bgeu	a5,a3,8000253c <__moddi3+0x608>
80002294:	0086d593          	srli	a1,a3,0x8
80002298:	00800713          	li	a4,8
8000229c:	e89ff06f          	j	80002124 <__moddi3+0x1f0>
800022a0:	016657b3          	srl	a5,a2,s6
800022a4:	014696b3          	sll	a3,a3,s4
800022a8:	00d7e9b3          	or	s3,a5,a3
800022ac:	0164dbb3          	srl	s7,s1,s6
800022b0:	0109dd13          	srli	s10,s3,0x10
800022b4:	016457b3          	srl	a5,s0,s6
800022b8:	000d0593          	mv	a1,s10
800022bc:	000b8513          	mv	a0,s7
800022c0:	014494b3          	sll	s1,s1,s4
800022c4:	0097e4b3          	or	s1,a5,s1
800022c8:	01461ab3          	sll	s5,a2,s4
800022cc:	731000ef          	jal	ra,800031fc <__umodsi3>
800022d0:	00050c93          	mv	s9,a0
800022d4:	000d0593          	mv	a1,s10
800022d8:	000b8513          	mv	a0,s7
800022dc:	01099d93          	slli	s11,s3,0x10
800022e0:	6d5000ef          	jal	ra,800031b4 <__udivsi3>
800022e4:	010ddd93          	srli	s11,s11,0x10
800022e8:	00050593          	mv	a1,a0
800022ec:	00050b93          	mv	s7,a0
800022f0:	000d8513          	mv	a0,s11
800022f4:	695000ef          	jal	ra,80003188 <__mulsi3>
800022f8:	010c9c93          	slli	s9,s9,0x10
800022fc:	0104d793          	srli	a5,s1,0x10
80002300:	00fce7b3          	or	a5,s9,a5
80002304:	01441433          	sll	s0,s0,s4
80002308:	00a7fe63          	bgeu	a5,a0,80002324 <__moddi3+0x3f0>
8000230c:	013787b3          	add	a5,a5,s3
80002310:	fffb8713          	addi	a4,s7,-1
80002314:	2537e463          	bltu	a5,s3,8000255c <__moddi3+0x628>
80002318:	24a7f263          	bgeu	a5,a0,8000255c <__moddi3+0x628>
8000231c:	ffeb8b93          	addi	s7,s7,-2
80002320:	013787b3          	add	a5,a5,s3
80002324:	40a78c33          	sub	s8,a5,a0
80002328:	000d0593          	mv	a1,s10
8000232c:	000c0513          	mv	a0,s8
80002330:	6cd000ef          	jal	ra,800031fc <__umodsi3>
80002334:	00050793          	mv	a5,a0
80002338:	000d0593          	mv	a1,s10
8000233c:	000c0513          	mv	a0,s8
80002340:	01049493          	slli	s1,s1,0x10
80002344:	00078c13          	mv	s8,a5
80002348:	66d000ef          	jal	ra,800031b4 <__udivsi3>
8000234c:	00050593          	mv	a1,a0
80002350:	00050c93          	mv	s9,a0
80002354:	010c1c13          	slli	s8,s8,0x10
80002358:	000d8513          	mv	a0,s11
8000235c:	0104d493          	srli	s1,s1,0x10
80002360:	629000ef          	jal	ra,80003188 <__mulsi3>
80002364:	009c64b3          	or	s1,s8,s1
80002368:	00a4fe63          	bgeu	s1,a0,80002384 <__moddi3+0x450>
8000236c:	013484b3          	add	s1,s1,s3
80002370:	fffc8793          	addi	a5,s9,-1
80002374:	1f34e063          	bltu	s1,s3,80002554 <__moddi3+0x620>
80002378:	1ca4fe63          	bgeu	s1,a0,80002554 <__moddi3+0x620>
8000237c:	ffec8c93          	addi	s9,s9,-2
80002380:	013484b3          	add	s1,s1,s3
80002384:	000108b7          	lui	a7,0x10
80002388:	010b9b93          	slli	s7,s7,0x10
8000238c:	019bebb3          	or	s7,s7,s9
80002390:	fff88813          	addi	a6,a7,-1 # ffff <buflen.2940+0xffbf>
80002394:	010bfe33          	and	t3,s7,a6
80002398:	010af833          	and	a6,s5,a6
8000239c:	40a484b3          	sub	s1,s1,a0
800023a0:	010bdb93          	srli	s7,s7,0x10
800023a4:	010ad313          	srli	t1,s5,0x10
800023a8:	000e0513          	mv	a0,t3
800023ac:	00080593          	mv	a1,a6
800023b0:	5d9000ef          	jal	ra,80003188 <__mulsi3>
800023b4:	00050713          	mv	a4,a0
800023b8:	00030593          	mv	a1,t1
800023bc:	000e0513          	mv	a0,t3
800023c0:	5c9000ef          	jal	ra,80003188 <__mulsi3>
800023c4:	00050793          	mv	a5,a0
800023c8:	00080593          	mv	a1,a6
800023cc:	000b8513          	mv	a0,s7
800023d0:	5b9000ef          	jal	ra,80003188 <__mulsi3>
800023d4:	00050813          	mv	a6,a0
800023d8:	00030593          	mv	a1,t1
800023dc:	000b8513          	mv	a0,s7
800023e0:	5a9000ef          	jal	ra,80003188 <__mulsi3>
800023e4:	010787b3          	add	a5,a5,a6
800023e8:	01075693          	srli	a3,a4,0x10
800023ec:	00d787b3          	add	a5,a5,a3
800023f0:	0107f463          	bgeu	a5,a6,800023f8 <__moddi3+0x4c4>
800023f4:	01150533          	add	a0,a0,a7
800023f8:	000106b7          	lui	a3,0x10
800023fc:	fff68693          	addi	a3,a3,-1 # ffff <buflen.2940+0xffbf>
80002400:	0107d593          	srli	a1,a5,0x10
80002404:	00d7f7b3          	and	a5,a5,a3
80002408:	01079793          	slli	a5,a5,0x10
8000240c:	00d77733          	and	a4,a4,a3
80002410:	00a585b3          	add	a1,a1,a0
80002414:	00e787b3          	add	a5,a5,a4
80002418:	0eb4ea63          	bltu	s1,a1,8000250c <__moddi3+0x5d8>
8000241c:	0eb48663          	beq	s1,a1,80002508 <__moddi3+0x5d4>
80002420:	40f407b3          	sub	a5,s0,a5
80002424:	40b485b3          	sub	a1,s1,a1
80002428:	00f43433          	sltu	s0,s0,a5
8000242c:	408584b3          	sub	s1,a1,s0
80002430:	01649533          	sll	a0,s1,s6
80002434:	0147d7b3          	srl	a5,a5,s4
80002438:	00f56533          	or	a0,a0,a5
8000243c:	0144d5b3          	srl	a1,s1,s4
80002440:	c55ff06f          	j	80002094 <__moddi3+0x160>
80002444:	013a9ab3          	sll	s5,s5,s3
80002448:	00f4da33          	srl	s4,s1,a5
8000244c:	010adc13          	srli	s8,s5,0x10
80002450:	00f457b3          	srl	a5,s0,a5
80002454:	000c0593          	mv	a1,s8
80002458:	013494b3          	sll	s1,s1,s3
8000245c:	000a0513          	mv	a0,s4
80002460:	0097ecb3          	or	s9,a5,s1
80002464:	599000ef          	jal	ra,800031fc <__umodsi3>
80002468:	00050493          	mv	s1,a0
8000246c:	000c0593          	mv	a1,s8
80002470:	000a0513          	mv	a0,s4
80002474:	010a9b13          	slli	s6,s5,0x10
80002478:	53d000ef          	jal	ra,800031b4 <__udivsi3>
8000247c:	010b5b13          	srli	s6,s6,0x10
80002480:	00050593          	mv	a1,a0
80002484:	000b0513          	mv	a0,s6
80002488:	501000ef          	jal	ra,80003188 <__mulsi3>
8000248c:	01049493          	slli	s1,s1,0x10
80002490:	010cd793          	srli	a5,s9,0x10
80002494:	00f4e7b3          	or	a5,s1,a5
80002498:	01341a33          	sll	s4,s0,s3
8000249c:	00a7fa63          	bgeu	a5,a0,800024b0 <__moddi3+0x57c>
800024a0:	015787b3          	add	a5,a5,s5
800024a4:	0157e663          	bltu	a5,s5,800024b0 <__moddi3+0x57c>
800024a8:	00a7f463          	bgeu	a5,a0,800024b0 <__moddi3+0x57c>
800024ac:	015787b3          	add	a5,a5,s5
800024b0:	40a78433          	sub	s0,a5,a0
800024b4:	000c0593          	mv	a1,s8
800024b8:	00040513          	mv	a0,s0
800024bc:	541000ef          	jal	ra,800031fc <__umodsi3>
800024c0:	00050b93          	mv	s7,a0
800024c4:	000c0593          	mv	a1,s8
800024c8:	00040513          	mv	a0,s0
800024cc:	4e9000ef          	jal	ra,800031b4 <__udivsi3>
800024d0:	010c9493          	slli	s1,s9,0x10
800024d4:	00050593          	mv	a1,a0
800024d8:	010b9b93          	slli	s7,s7,0x10
800024dc:	000b0513          	mv	a0,s6
800024e0:	0104d493          	srli	s1,s1,0x10
800024e4:	4a5000ef          	jal	ra,80003188 <__mulsi3>
800024e8:	009be4b3          	or	s1,s7,s1
800024ec:	00a4fa63          	bgeu	s1,a0,80002500 <__moddi3+0x5cc>
800024f0:	015484b3          	add	s1,s1,s5
800024f4:	0154e663          	bltu	s1,s5,80002500 <__moddi3+0x5cc>
800024f8:	00a4f463          	bgeu	s1,a0,80002500 <__moddi3+0x5cc>
800024fc:	015484b3          	add	s1,s1,s5
80002500:	40a48433          	sub	s0,s1,a0
80002504:	cbdff06f          	j	800021c0 <__moddi3+0x28c>
80002508:	f0f47ce3          	bgeu	s0,a5,80002420 <__moddi3+0x4ec>
8000250c:	41578633          	sub	a2,a5,s5
80002510:	00c7b7b3          	sltu	a5,a5,a2
80002514:	013787b3          	add	a5,a5,s3
80002518:	40f585b3          	sub	a1,a1,a5
8000251c:	00060793          	mv	a5,a2
80002520:	f01ff06f          	j	80002420 <__moddi3+0x4ec>
80002524:	0106d593          	srli	a1,a3,0x10
80002528:	01000713          	li	a4,16
8000252c:	bf9ff06f          	j	80002124 <__moddi3+0x1f0>
80002530:	010ad713          	srli	a4,s5,0x10
80002534:	01000993          	li	s3,16
80002538:	c59ff06f          	j	80002190 <__moddi3+0x25c>
8000253c:	00068593          	mv	a1,a3
80002540:	00000713          	li	a4,0
80002544:	be1ff06f          	j	80002124 <__moddi3+0x1f0>
80002548:	01065713          	srli	a4,a2,0x10
8000254c:	01000993          	li	s3,16
80002550:	a71ff06f          	j	80001fc0 <__moddi3+0x8c>
80002554:	00078c93          	mv	s9,a5
80002558:	e2dff06f          	j	80002384 <__moddi3+0x450>
8000255c:	00070b93          	mv	s7,a4
80002560:	dc5ff06f          	j	80002324 <__moddi3+0x3f0>
80002564:	015787b3          	add	a5,a5,s5
80002568:	c99ff06f          	j	80002200 <__moddi3+0x2cc>

8000256c <__udivdi3>:
8000256c:	fd010113          	addi	sp,sp,-48
80002570:	03212023          	sw	s2,32(sp)
80002574:	01312e23          	sw	s3,28(sp)
80002578:	02112623          	sw	ra,44(sp)
8000257c:	02812423          	sw	s0,40(sp)
80002580:	02912223          	sw	s1,36(sp)
80002584:	01412c23          	sw	s4,24(sp)
80002588:	01512a23          	sw	s5,20(sp)
8000258c:	01612823          	sw	s6,16(sp)
80002590:	01712623          	sw	s7,12(sp)
80002594:	01812423          	sw	s8,8(sp)
80002598:	01912223          	sw	s9,4(sp)
8000259c:	00050993          	mv	s3,a0
800025a0:	00058913          	mv	s2,a1
800025a4:	12069863          	bnez	a3,800026d4 <__udivdi3+0x168>
800025a8:	00068413          	mv	s0,a3
800025ac:	00060493          	mv	s1,a2
800025b0:	00050a13          	mv	s4,a0
800025b4:	1ac5f863          	bgeu	a1,a2,80002764 <__udivdi3+0x1f8>
800025b8:	000107b7          	lui	a5,0x10
800025bc:	00058a93          	mv	s5,a1
800025c0:	2cf66863          	bltu	a2,a5,80002890 <__udivdi3+0x324>
800025c4:	010007b7          	lui	a5,0x1000
800025c8:	58f66c63          	bltu	a2,a5,80002b60 <__udivdi3+0x5f4>
800025cc:	01865713          	srli	a4,a2,0x18
800025d0:	01800413          	li	s0,24
800025d4:	800037b7          	lui	a5,0x80003
800025d8:	57878793          	addi	a5,a5,1400 # 80003578 <__global_pointer$+0xfffff5fc>
800025dc:	00e787b3          	add	a5,a5,a4
800025e0:	0007c783          	lbu	a5,0(a5)
800025e4:	02000713          	li	a4,32
800025e8:	00878433          	add	s0,a5,s0
800025ec:	408706b3          	sub	a3,a4,s0
800025f0:	00870c63          	beq	a4,s0,80002608 <__udivdi3+0x9c>
800025f4:	00d917b3          	sll	a5,s2,a3
800025f8:	0089d433          	srl	s0,s3,s0
800025fc:	00d614b3          	sll	s1,a2,a3
80002600:	00f46ab3          	or	s5,s0,a5
80002604:	00d99a33          	sll	s4,s3,a3
80002608:	0104db13          	srli	s6,s1,0x10
8000260c:	000b0593          	mv	a1,s6
80002610:	000a8513          	mv	a0,s5
80002614:	3e9000ef          	jal	ra,800031fc <__umodsi3>
80002618:	00050993          	mv	s3,a0
8000261c:	000b0593          	mv	a1,s6
80002620:	000a8513          	mv	a0,s5
80002624:	01049a93          	slli	s5,s1,0x10
80002628:	38d000ef          	jal	ra,800031b4 <__udivsi3>
8000262c:	010ada93          	srli	s5,s5,0x10
80002630:	00050593          	mv	a1,a0
80002634:	00050413          	mv	s0,a0
80002638:	000a8513          	mv	a0,s5
8000263c:	34d000ef          	jal	ra,80003188 <__mulsi3>
80002640:	01099993          	slli	s3,s3,0x10
80002644:	010a5793          	srli	a5,s4,0x10
80002648:	00f9e7b3          	or	a5,s3,a5
8000264c:	00a7fc63          	bgeu	a5,a0,80002664 <__udivdi3+0xf8>
80002650:	009787b3          	add	a5,a5,s1
80002654:	fff40713          	addi	a4,s0,-1
80002658:	0097e463          	bltu	a5,s1,80002660 <__udivdi3+0xf4>
8000265c:	52a7ee63          	bltu	a5,a0,80002b98 <__udivdi3+0x62c>
80002660:	00070413          	mv	s0,a4
80002664:	40a78933          	sub	s2,a5,a0
80002668:	000b0593          	mv	a1,s6
8000266c:	00090513          	mv	a0,s2
80002670:	38d000ef          	jal	ra,800031fc <__umodsi3>
80002674:	00050793          	mv	a5,a0
80002678:	000b0593          	mv	a1,s6
8000267c:	00090513          	mv	a0,s2
80002680:	010a1a13          	slli	s4,s4,0x10
80002684:	00078913          	mv	s2,a5
80002688:	32d000ef          	jal	ra,800031b4 <__udivsi3>
8000268c:	00050593          	mv	a1,a0
80002690:	00050993          	mv	s3,a0
80002694:	01091913          	slli	s2,s2,0x10
80002698:	000a8513          	mv	a0,s5
8000269c:	010a5a13          	srli	s4,s4,0x10
800026a0:	2e9000ef          	jal	ra,80003188 <__mulsi3>
800026a4:	01496a33          	or	s4,s2,s4
800026a8:	00aa7e63          	bgeu	s4,a0,800026c4 <__udivdi3+0x158>
800026ac:	01448a33          	add	s4,s1,s4
800026b0:	fff98793          	addi	a5,s3,-1
800026b4:	009a6663          	bltu	s4,s1,800026c0 <__udivdi3+0x154>
800026b8:	ffe98993          	addi	s3,s3,-2
800026bc:	00aa6463          	bltu	s4,a0,800026c4 <__udivdi3+0x158>
800026c0:	00078993          	mv	s3,a5
800026c4:	01041413          	slli	s0,s0,0x10
800026c8:	01346533          	or	a0,s0,s3
800026cc:	00000b13          	li	s6,0
800026d0:	0100006f          	j	800026e0 <__udivdi3+0x174>
800026d4:	04d5f263          	bgeu	a1,a3,80002718 <__udivdi3+0x1ac>
800026d8:	00000b13          	li	s6,0
800026dc:	00000513          	li	a0,0
800026e0:	000b0593          	mv	a1,s6
800026e4:	02c12083          	lw	ra,44(sp)
800026e8:	02812403          	lw	s0,40(sp)
800026ec:	02412483          	lw	s1,36(sp)
800026f0:	02012903          	lw	s2,32(sp)
800026f4:	01c12983          	lw	s3,28(sp)
800026f8:	01812a03          	lw	s4,24(sp)
800026fc:	01412a83          	lw	s5,20(sp)
80002700:	01012b03          	lw	s6,16(sp)
80002704:	00c12b83          	lw	s7,12(sp)
80002708:	00812c03          	lw	s8,8(sp)
8000270c:	00412c83          	lw	s9,4(sp)
80002710:	03010113          	addi	sp,sp,48
80002714:	00008067          	ret
80002718:	000107b7          	lui	a5,0x10
8000271c:	18f6e663          	bltu	a3,a5,800028a8 <__udivdi3+0x33c>
80002720:	010007b7          	lui	a5,0x1000
80002724:	40f6ec63          	bltu	a3,a5,80002b3c <__udivdi3+0x5d0>
80002728:	0186d793          	srli	a5,a3,0x18
8000272c:	01800593          	li	a1,24
80002730:	80003737          	lui	a4,0x80003
80002734:	57870713          	addi	a4,a4,1400 # 80003578 <__global_pointer$+0xfffff5fc>
80002738:	00f70733          	add	a4,a4,a5
8000273c:	00074783          	lbu	a5,0(a4)
80002740:	02000713          	li	a4,32
80002744:	00b787b3          	add	a5,a5,a1
80002748:	40f70bb3          	sub	s7,a4,a5
8000274c:	24f71a63          	bne	a4,a5,800029a0 <__udivdi3+0x434>
80002750:	4126ee63          	bltu	a3,s2,80002b6c <__udivdi3+0x600>
80002754:	00c9b633          	sltu	a2,s3,a2
80002758:	00164513          	xori	a0,a2,1
8000275c:	00000b13          	li	s6,0
80002760:	f81ff06f          	j	800026e0 <__udivdi3+0x174>
80002764:	00061a63          	bnez	a2,80002778 <__udivdi3+0x20c>
80002768:	00000593          	li	a1,0
8000276c:	00100513          	li	a0,1
80002770:	245000ef          	jal	ra,800031b4 <__udivsi3>
80002774:	00050493          	mv	s1,a0
80002778:	000107b7          	lui	a5,0x10
8000277c:	0ef4ee63          	bltu	s1,a5,80002878 <__udivdi3+0x30c>
80002780:	010007b7          	lui	a5,0x1000
80002784:	3cf4e863          	bltu	s1,a5,80002b54 <__udivdi3+0x5e8>
80002788:	0184d713          	srli	a4,s1,0x18
8000278c:	01800413          	li	s0,24
80002790:	800037b7          	lui	a5,0x80003
80002794:	57878793          	addi	a5,a5,1400 # 80003578 <__global_pointer$+0xfffff5fc>
80002798:	00e787b3          	add	a5,a5,a4
8000279c:	0007c783          	lbu	a5,0(a5)
800027a0:	02000713          	li	a4,32
800027a4:	00878433          	add	s0,a5,s0
800027a8:	408706b3          	sub	a3,a4,s0
800027ac:	10871863          	bne	a4,s0,800028bc <__udivdi3+0x350>
800027b0:	01049a93          	slli	s5,s1,0x10
800027b4:	40990433          	sub	s0,s2,s1
800027b8:	0104db93          	srli	s7,s1,0x10
800027bc:	010ada93          	srli	s5,s5,0x10
800027c0:	00100b13          	li	s6,1
800027c4:	000b8593          	mv	a1,s7
800027c8:	00040513          	mv	a0,s0
800027cc:	231000ef          	jal	ra,800031fc <__umodsi3>
800027d0:	00050993          	mv	s3,a0
800027d4:	000b8593          	mv	a1,s7
800027d8:	00040513          	mv	a0,s0
800027dc:	1d9000ef          	jal	ra,800031b4 <__udivsi3>
800027e0:	000a8593          	mv	a1,s5
800027e4:	00050413          	mv	s0,a0
800027e8:	1a1000ef          	jal	ra,80003188 <__mulsi3>
800027ec:	01099993          	slli	s3,s3,0x10
800027f0:	010a5793          	srli	a5,s4,0x10
800027f4:	00f9e7b3          	or	a5,s3,a5
800027f8:	00a7fc63          	bgeu	a5,a0,80002810 <__udivdi3+0x2a4>
800027fc:	009787b3          	add	a5,a5,s1
80002800:	fff40713          	addi	a4,s0,-1
80002804:	0097e463          	bltu	a5,s1,8000280c <__udivdi3+0x2a0>
80002808:	38a7ee63          	bltu	a5,a0,80002ba4 <__udivdi3+0x638>
8000280c:	00070413          	mv	s0,a4
80002810:	40a78933          	sub	s2,a5,a0
80002814:	000b8593          	mv	a1,s7
80002818:	00090513          	mv	a0,s2
8000281c:	1e1000ef          	jal	ra,800031fc <__umodsi3>
80002820:	00050793          	mv	a5,a0
80002824:	000b8593          	mv	a1,s7
80002828:	00090513          	mv	a0,s2
8000282c:	010a1a13          	slli	s4,s4,0x10
80002830:	00078913          	mv	s2,a5
80002834:	181000ef          	jal	ra,800031b4 <__udivsi3>
80002838:	000a8593          	mv	a1,s5
8000283c:	01091913          	slli	s2,s2,0x10
80002840:	010a5a13          	srli	s4,s4,0x10
80002844:	00050993          	mv	s3,a0
80002848:	01496a33          	or	s4,s2,s4
8000284c:	13d000ef          	jal	ra,80003188 <__mulsi3>
80002850:	00aa7e63          	bgeu	s4,a0,8000286c <__udivdi3+0x300>
80002854:	01448a33          	add	s4,s1,s4
80002858:	fff98793          	addi	a5,s3,-1
8000285c:	009a6663          	bltu	s4,s1,80002868 <__udivdi3+0x2fc>
80002860:	ffe98993          	addi	s3,s3,-2
80002864:	00aa6463          	bltu	s4,a0,8000286c <__udivdi3+0x300>
80002868:	00078993          	mv	s3,a5
8000286c:	01041413          	slli	s0,s0,0x10
80002870:	01346533          	or	a0,s0,s3
80002874:	e6dff06f          	j	800026e0 <__udivdi3+0x174>
80002878:	0ff00793          	li	a5,255
8000287c:	00048713          	mv	a4,s1
80002880:	f097f8e3          	bgeu	a5,s1,80002790 <__udivdi3+0x224>
80002884:	0084d713          	srli	a4,s1,0x8
80002888:	00800413          	li	s0,8
8000288c:	f05ff06f          	j	80002790 <__udivdi3+0x224>
80002890:	0ff00793          	li	a5,255
80002894:	00060713          	mv	a4,a2
80002898:	d2c7fee3          	bgeu	a5,a2,800025d4 <__udivdi3+0x68>
8000289c:	00865713          	srli	a4,a2,0x8
800028a0:	00800413          	li	s0,8
800028a4:	d31ff06f          	j	800025d4 <__udivdi3+0x68>
800028a8:	0ff00793          	li	a5,255
800028ac:	28d7fe63          	bgeu	a5,a3,80002b48 <__udivdi3+0x5dc>
800028b0:	0086d793          	srli	a5,a3,0x8
800028b4:	00800593          	li	a1,8
800028b8:	e79ff06f          	j	80002730 <__udivdi3+0x1c4>
800028bc:	00d494b3          	sll	s1,s1,a3
800028c0:	00895ab3          	srl	s5,s2,s0
800028c4:	0104db93          	srli	s7,s1,0x10
800028c8:	00d917b3          	sll	a5,s2,a3
800028cc:	0089d433          	srl	s0,s3,s0
800028d0:	000b8593          	mv	a1,s7
800028d4:	000a8513          	mv	a0,s5
800028d8:	00f46c33          	or	s8,s0,a5
800028dc:	00d99a33          	sll	s4,s3,a3
800028e0:	11d000ef          	jal	ra,800031fc <__umodsi3>
800028e4:	00050913          	mv	s2,a0
800028e8:	000b8593          	mv	a1,s7
800028ec:	000a8513          	mv	a0,s5
800028f0:	01049a93          	slli	s5,s1,0x10
800028f4:	0c1000ef          	jal	ra,800031b4 <__udivsi3>
800028f8:	010ada93          	srli	s5,s5,0x10
800028fc:	00050593          	mv	a1,a0
80002900:	00050993          	mv	s3,a0
80002904:	000a8513          	mv	a0,s5
80002908:	081000ef          	jal	ra,80003188 <__mulsi3>
8000290c:	01091913          	slli	s2,s2,0x10
80002910:	010c5793          	srli	a5,s8,0x10
80002914:	00f967b3          	or	a5,s2,a5
80002918:	00a7fe63          	bgeu	a5,a0,80002934 <__udivdi3+0x3c8>
8000291c:	009787b3          	add	a5,a5,s1
80002920:	fff98713          	addi	a4,s3,-1
80002924:	2697e663          	bltu	a5,s1,80002b90 <__udivdi3+0x624>
80002928:	26a7f463          	bgeu	a5,a0,80002b90 <__udivdi3+0x624>
8000292c:	ffe98993          	addi	s3,s3,-2
80002930:	009787b3          	add	a5,a5,s1
80002934:	40a78433          	sub	s0,a5,a0
80002938:	000b8593          	mv	a1,s7
8000293c:	00040513          	mv	a0,s0
80002940:	0bd000ef          	jal	ra,800031fc <__umodsi3>
80002944:	00050913          	mv	s2,a0
80002948:	000b8593          	mv	a1,s7
8000294c:	00040513          	mv	a0,s0
80002950:	065000ef          	jal	ra,800031b4 <__udivsi3>
80002954:	010c1413          	slli	s0,s8,0x10
80002958:	00050593          	mv	a1,a0
8000295c:	00050b13          	mv	s6,a0
80002960:	01091913          	slli	s2,s2,0x10
80002964:	000a8513          	mv	a0,s5
80002968:	01045413          	srli	s0,s0,0x10
8000296c:	01d000ef          	jal	ra,80003188 <__mulsi3>
80002970:	00896433          	or	s0,s2,s0
80002974:	00a47e63          	bgeu	s0,a0,80002990 <__udivdi3+0x424>
80002978:	00940433          	add	s0,s0,s1
8000297c:	fffb0793          	addi	a5,s6,-1
80002980:	20946063          	bltu	s0,s1,80002b80 <__udivdi3+0x614>
80002984:	1ea47e63          	bgeu	s0,a0,80002b80 <__udivdi3+0x614>
80002988:	ffeb0b13          	addi	s6,s6,-2
8000298c:	00940433          	add	s0,s0,s1
80002990:	01099993          	slli	s3,s3,0x10
80002994:	40a40433          	sub	s0,s0,a0
80002998:	0169eb33          	or	s6,s3,s6
8000299c:	e29ff06f          	j	800027c4 <__udivdi3+0x258>
800029a0:	00f65a33          	srl	s4,a2,a5
800029a4:	017696b3          	sll	a3,a3,s7
800029a8:	00da6a33          	or	s4,s4,a3
800029ac:	00f954b3          	srl	s1,s2,a5
800029b0:	010a5c13          	srli	s8,s4,0x10
800029b4:	00f9d433          	srl	s0,s3,a5
800029b8:	000c0593          	mv	a1,s8
800029bc:	017917b3          	sll	a5,s2,s7
800029c0:	00048513          	mv	a0,s1
800029c4:	00f46433          	or	s0,s0,a5
800029c8:	01761ab3          	sll	s5,a2,s7
800029cc:	031000ef          	jal	ra,800031fc <__umodsi3>
800029d0:	00050913          	mv	s2,a0
800029d4:	000c0593          	mv	a1,s8
800029d8:	00048513          	mv	a0,s1
800029dc:	010a1c93          	slli	s9,s4,0x10
800029e0:	7d4000ef          	jal	ra,800031b4 <__udivsi3>
800029e4:	010cdc93          	srli	s9,s9,0x10
800029e8:	00050593          	mv	a1,a0
800029ec:	00050b13          	mv	s6,a0
800029f0:	000c8513          	mv	a0,s9
800029f4:	794000ef          	jal	ra,80003188 <__mulsi3>
800029f8:	01091913          	slli	s2,s2,0x10
800029fc:	01045793          	srli	a5,s0,0x10
80002a00:	00f967b3          	or	a5,s2,a5
80002a04:	00a7fe63          	bgeu	a5,a0,80002a20 <__udivdi3+0x4b4>
80002a08:	014787b3          	add	a5,a5,s4
80002a0c:	fffb0713          	addi	a4,s6,-1
80002a10:	1747ec63          	bltu	a5,s4,80002b88 <__udivdi3+0x61c>
80002a14:	16a7fa63          	bgeu	a5,a0,80002b88 <__udivdi3+0x61c>
80002a18:	ffeb0b13          	addi	s6,s6,-2
80002a1c:	014787b3          	add	a5,a5,s4
80002a20:	40a784b3          	sub	s1,a5,a0
80002a24:	000c0593          	mv	a1,s8
80002a28:	00048513          	mv	a0,s1
80002a2c:	7d0000ef          	jal	ra,800031fc <__umodsi3>
80002a30:	00050793          	mv	a5,a0
80002a34:	000c0593          	mv	a1,s8
80002a38:	00048513          	mv	a0,s1
80002a3c:	01041413          	slli	s0,s0,0x10
80002a40:	00078493          	mv	s1,a5
80002a44:	770000ef          	jal	ra,800031b4 <__udivsi3>
80002a48:	00050593          	mv	a1,a0
80002a4c:	00050913          	mv	s2,a0
80002a50:	01049493          	slli	s1,s1,0x10
80002a54:	000c8513          	mv	a0,s9
80002a58:	01045413          	srli	s0,s0,0x10
80002a5c:	72c000ef          	jal	ra,80003188 <__mulsi3>
80002a60:	0084e433          	or	s0,s1,s0
80002a64:	00a47e63          	bgeu	s0,a0,80002a80 <__udivdi3+0x514>
80002a68:	01440433          	add	s0,s0,s4
80002a6c:	fff90793          	addi	a5,s2,-1
80002a70:	11446463          	bltu	s0,s4,80002b78 <__udivdi3+0x60c>
80002a74:	10a47263          	bgeu	s0,a0,80002b78 <__udivdi3+0x60c>
80002a78:	ffe90913          	addi	s2,s2,-2
80002a7c:	01440433          	add	s0,s0,s4
80002a80:	00010337          	lui	t1,0x10
80002a84:	010b1b13          	slli	s6,s6,0x10
80002a88:	012b6b33          	or	s6,s6,s2
80002a8c:	fff30813          	addi	a6,t1,-1 # ffff <buflen.2940+0xffbf>
80002a90:	010b7733          	and	a4,s6,a6
80002a94:	010af833          	and	a6,s5,a6
80002a98:	40a40433          	sub	s0,s0,a0
80002a9c:	010b5e13          	srli	t3,s6,0x10
80002aa0:	010ada93          	srli	s5,s5,0x10
80002aa4:	00070513          	mv	a0,a4
80002aa8:	00080593          	mv	a1,a6
80002aac:	6dc000ef          	jal	ra,80003188 <__mulsi3>
80002ab0:	00050893          	mv	a7,a0
80002ab4:	000a8593          	mv	a1,s5
80002ab8:	00070513          	mv	a0,a4
80002abc:	6cc000ef          	jal	ra,80003188 <__mulsi3>
80002ac0:	00050713          	mv	a4,a0
80002ac4:	00080593          	mv	a1,a6
80002ac8:	000e0513          	mv	a0,t3
80002acc:	6bc000ef          	jal	ra,80003188 <__mulsi3>
80002ad0:	00050813          	mv	a6,a0
80002ad4:	000a8593          	mv	a1,s5
80002ad8:	000e0513          	mv	a0,t3
80002adc:	6ac000ef          	jal	ra,80003188 <__mulsi3>
80002ae0:	0108d793          	srli	a5,a7,0x10
80002ae4:	01070733          	add	a4,a4,a6
80002ae8:	00e787b3          	add	a5,a5,a4
80002aec:	0107f463          	bgeu	a5,a6,80002af4 <__udivdi3+0x588>
80002af0:	00650533          	add	a0,a0,t1
80002af4:	0107d713          	srli	a4,a5,0x10
80002af8:	00a70533          	add	a0,a4,a0
80002afc:	02a46a63          	bltu	s0,a0,80002b30 <__udivdi3+0x5c4>
80002b00:	00a40863          	beq	s0,a0,80002b10 <__udivdi3+0x5a4>
80002b04:	000b0513          	mv	a0,s6
80002b08:	00000b13          	li	s6,0
80002b0c:	bd5ff06f          	j	800026e0 <__udivdi3+0x174>
80002b10:	00010737          	lui	a4,0x10
80002b14:	fff70713          	addi	a4,a4,-1 # ffff <buflen.2940+0xffbf>
80002b18:	00e7f7b3          	and	a5,a5,a4
80002b1c:	01079793          	slli	a5,a5,0x10
80002b20:	00e8f8b3          	and	a7,a7,a4
80002b24:	01799633          	sll	a2,s3,s7
80002b28:	011787b3          	add	a5,a5,a7
80002b2c:	fcf67ce3          	bgeu	a2,a5,80002b04 <__udivdi3+0x598>
80002b30:	fffb0513          	addi	a0,s6,-1
80002b34:	00000b13          	li	s6,0
80002b38:	ba9ff06f          	j	800026e0 <__udivdi3+0x174>
80002b3c:	0106d793          	srli	a5,a3,0x10
80002b40:	01000593          	li	a1,16
80002b44:	bedff06f          	j	80002730 <__udivdi3+0x1c4>
80002b48:	00068793          	mv	a5,a3
80002b4c:	00000593          	li	a1,0
80002b50:	be1ff06f          	j	80002730 <__udivdi3+0x1c4>
80002b54:	0104d713          	srli	a4,s1,0x10
80002b58:	01000413          	li	s0,16
80002b5c:	c35ff06f          	j	80002790 <__udivdi3+0x224>
80002b60:	01065713          	srli	a4,a2,0x10
80002b64:	01000413          	li	s0,16
80002b68:	a6dff06f          	j	800025d4 <__udivdi3+0x68>
80002b6c:	00000b13          	li	s6,0
80002b70:	00100513          	li	a0,1
80002b74:	b6dff06f          	j	800026e0 <__udivdi3+0x174>
80002b78:	00078913          	mv	s2,a5
80002b7c:	f05ff06f          	j	80002a80 <__udivdi3+0x514>
80002b80:	00078b13          	mv	s6,a5
80002b84:	e0dff06f          	j	80002990 <__udivdi3+0x424>
80002b88:	00070b13          	mv	s6,a4
80002b8c:	e95ff06f          	j	80002a20 <__udivdi3+0x4b4>
80002b90:	00070993          	mv	s3,a4
80002b94:	da1ff06f          	j	80002934 <__udivdi3+0x3c8>
80002b98:	ffe40413          	addi	s0,s0,-2
80002b9c:	009787b3          	add	a5,a5,s1
80002ba0:	ac5ff06f          	j	80002664 <__udivdi3+0xf8>
80002ba4:	ffe40413          	addi	s0,s0,-2
80002ba8:	009787b3          	add	a5,a5,s1
80002bac:	c65ff06f          	j	80002810 <__udivdi3+0x2a4>

80002bb0 <__umoddi3>:
80002bb0:	fd010113          	addi	sp,sp,-48
80002bb4:	02812423          	sw	s0,40(sp)
80002bb8:	02912223          	sw	s1,36(sp)
80002bbc:	02112623          	sw	ra,44(sp)
80002bc0:	03212023          	sw	s2,32(sp)
80002bc4:	01312e23          	sw	s3,28(sp)
80002bc8:	01412c23          	sw	s4,24(sp)
80002bcc:	01512a23          	sw	s5,20(sp)
80002bd0:	01612823          	sw	s6,16(sp)
80002bd4:	01712623          	sw	s7,12(sp)
80002bd8:	01812423          	sw	s8,8(sp)
80002bdc:	01912223          	sw	s9,4(sp)
80002be0:	01a12023          	sw	s10,0(sp)
80002be4:	00058493          	mv	s1,a1
80002be8:	00050413          	mv	s0,a0
80002bec:	12069e63          	bnez	a3,80002d28 <__umoddi3+0x178>
80002bf0:	00068913          	mv	s2,a3
80002bf4:	00060a13          	mv	s4,a2
80002bf8:	00050993          	mv	s3,a0
80002bfc:	18c5f263          	bgeu	a1,a2,80002d80 <__umoddi3+0x1d0>
80002c00:	000107b7          	lui	a5,0x10
80002c04:	00058a93          	mv	s5,a1
80002c08:	28f66463          	bltu	a2,a5,80002e90 <__umoddi3+0x2e0>
80002c0c:	010007b7          	lui	a5,0x1000
80002c10:	54f66a63          	bltu	a2,a5,80003164 <__umoddi3+0x5b4>
80002c14:	01865713          	srli	a4,a2,0x18
80002c18:	01800913          	li	s2,24
80002c1c:	800037b7          	lui	a5,0x80003
80002c20:	57878793          	addi	a5,a5,1400 # 80003578 <__global_pointer$+0xfffff5fc>
80002c24:	00e787b3          	add	a5,a5,a4
80002c28:	0007c783          	lbu	a5,0(a5)
80002c2c:	02000713          	li	a4,32
80002c30:	012787b3          	add	a5,a5,s2
80002c34:	40f70933          	sub	s2,a4,a5
80002c38:	00f70c63          	beq	a4,a5,80002c50 <__umoddi3+0xa0>
80002c3c:	012494b3          	sll	s1,s1,s2
80002c40:	00f45ab3          	srl	s5,s0,a5
80002c44:	01261a33          	sll	s4,a2,s2
80002c48:	009aeab3          	or	s5,s5,s1
80002c4c:	012419b3          	sll	s3,s0,s2
80002c50:	010a5b93          	srli	s7,s4,0x10
80002c54:	000b8593          	mv	a1,s7
80002c58:	000a8513          	mv	a0,s5
80002c5c:	5a0000ef          	jal	ra,800031fc <__umodsi3>
80002c60:	00050493          	mv	s1,a0
80002c64:	000b8593          	mv	a1,s7
80002c68:	010a1b13          	slli	s6,s4,0x10
80002c6c:	000a8513          	mv	a0,s5
80002c70:	544000ef          	jal	ra,800031b4 <__udivsi3>
80002c74:	010b5b13          	srli	s6,s6,0x10
80002c78:	00050593          	mv	a1,a0
80002c7c:	000b0513          	mv	a0,s6
80002c80:	508000ef          	jal	ra,80003188 <__mulsi3>
80002c84:	01049493          	slli	s1,s1,0x10
80002c88:	0109d793          	srli	a5,s3,0x10
80002c8c:	00f4e7b3          	or	a5,s1,a5
80002c90:	00a7fa63          	bgeu	a5,a0,80002ca4 <__umoddi3+0xf4>
80002c94:	014787b3          	add	a5,a5,s4
80002c98:	0147e663          	bltu	a5,s4,80002ca4 <__umoddi3+0xf4>
80002c9c:	00a7f463          	bgeu	a5,a0,80002ca4 <__umoddi3+0xf4>
80002ca0:	014787b3          	add	a5,a5,s4
80002ca4:	40a78433          	sub	s0,a5,a0
80002ca8:	000b8593          	mv	a1,s7
80002cac:	00040513          	mv	a0,s0
80002cb0:	54c000ef          	jal	ra,800031fc <__umodsi3>
80002cb4:	00050493          	mv	s1,a0
80002cb8:	000b8593          	mv	a1,s7
80002cbc:	00040513          	mv	a0,s0
80002cc0:	4f4000ef          	jal	ra,800031b4 <__udivsi3>
80002cc4:	00050593          	mv	a1,a0
80002cc8:	000b0513          	mv	a0,s6
80002ccc:	4bc000ef          	jal	ra,80003188 <__mulsi3>
80002cd0:	01099793          	slli	a5,s3,0x10
80002cd4:	01049493          	slli	s1,s1,0x10
80002cd8:	0107d793          	srli	a5,a5,0x10
80002cdc:	00f4e7b3          	or	a5,s1,a5
80002ce0:	16a7ec63          	bltu	a5,a0,80002e58 <__umoddi3+0x2a8>
80002ce4:	40a78533          	sub	a0,a5,a0
80002ce8:	01255533          	srl	a0,a0,s2
80002cec:	00000593          	li	a1,0
80002cf0:	02c12083          	lw	ra,44(sp)
80002cf4:	02812403          	lw	s0,40(sp)
80002cf8:	02412483          	lw	s1,36(sp)
80002cfc:	02012903          	lw	s2,32(sp)
80002d00:	01c12983          	lw	s3,28(sp)
80002d04:	01812a03          	lw	s4,24(sp)
80002d08:	01412a83          	lw	s5,20(sp)
80002d0c:	01012b03          	lw	s6,16(sp)
80002d10:	00c12b83          	lw	s7,12(sp)
80002d14:	00812c03          	lw	s8,8(sp)
80002d18:	00412c83          	lw	s9,4(sp)
80002d1c:	00012d03          	lw	s10,0(sp)
80002d20:	03010113          	addi	sp,sp,48
80002d24:	00008067          	ret
80002d28:	fcd5e4e3          	bltu	a1,a3,80002cf0 <__umoddi3+0x140>
80002d2c:	000107b7          	lui	a5,0x10
80002d30:	16f6ec63          	bltu	a3,a5,80002ea8 <__umoddi3+0x2f8>
80002d34:	010007b7          	lui	a5,0x1000
80002d38:	40f6e463          	bltu	a3,a5,80003140 <__umoddi3+0x590>
80002d3c:	0186d813          	srli	a6,a3,0x18
80002d40:	01800713          	li	a4,24
80002d44:	800037b7          	lui	a5,0x80003
80002d48:	57878793          	addi	a5,a5,1400 # 80003578 <__global_pointer$+0xfffff5fc>
80002d4c:	010787b3          	add	a5,a5,a6
80002d50:	0007ca83          	lbu	s5,0(a5)
80002d54:	02000793          	li	a5,32
80002d58:	00ea8ab3          	add	s5,s5,a4
80002d5c:	41578b33          	sub	s6,a5,s5
80002d60:	15579e63          	bne	a5,s5,80002ebc <__umoddi3+0x30c>
80002d64:	0096e463          	bltu	a3,s1,80002d6c <__umoddi3+0x1bc>
80002d68:	f8c464e3          	bltu	s0,a2,80002cf0 <__umoddi3+0x140>
80002d6c:	40c40533          	sub	a0,s0,a2
80002d70:	40d486b3          	sub	a3,s1,a3
80002d74:	00a435b3          	sltu	a1,s0,a0
80002d78:	40b685b3          	sub	a1,a3,a1
80002d7c:	f75ff06f          	j	80002cf0 <__umoddi3+0x140>
80002d80:	00061a63          	bnez	a2,80002d94 <__umoddi3+0x1e4>
80002d84:	00000593          	li	a1,0
80002d88:	00100513          	li	a0,1
80002d8c:	428000ef          	jal	ra,800031b4 <__udivsi3>
80002d90:	00050a13          	mv	s4,a0
80002d94:	000107b7          	lui	a5,0x10
80002d98:	0efa6063          	bltu	s4,a5,80002e78 <__umoddi3+0x2c8>
80002d9c:	010007b7          	lui	a5,0x1000
80002da0:	3afa6663          	bltu	s4,a5,8000314c <__umoddi3+0x59c>
80002da4:	018a5713          	srli	a4,s4,0x18
80002da8:	01800913          	li	s2,24
80002dac:	800037b7          	lui	a5,0x80003
80002db0:	57878793          	addi	a5,a5,1400 # 80003578 <__global_pointer$+0xfffff5fc>
80002db4:	00e787b3          	add	a5,a5,a4
80002db8:	0007c783          	lbu	a5,0(a5)
80002dbc:	02000713          	li	a4,32
80002dc0:	012787b3          	add	a5,a5,s2
80002dc4:	40f70933          	sub	s2,a4,a5
80002dc8:	28f71c63          	bne	a4,a5,80003060 <__umoddi3+0x4b0>
80002dcc:	010a1a93          	slli	s5,s4,0x10
80002dd0:	41448433          	sub	s0,s1,s4
80002dd4:	010a5b93          	srli	s7,s4,0x10
80002dd8:	010ada93          	srli	s5,s5,0x10
80002ddc:	000b8593          	mv	a1,s7
80002de0:	00040513          	mv	a0,s0
80002de4:	418000ef          	jal	ra,800031fc <__umodsi3>
80002de8:	00050493          	mv	s1,a0
80002dec:	000b8593          	mv	a1,s7
80002df0:	00040513          	mv	a0,s0
80002df4:	3c0000ef          	jal	ra,800031b4 <__udivsi3>
80002df8:	000a8593          	mv	a1,s5
80002dfc:	38c000ef          	jal	ra,80003188 <__mulsi3>
80002e00:	01049493          	slli	s1,s1,0x10
80002e04:	0109d793          	srli	a5,s3,0x10
80002e08:	00f4e7b3          	or	a5,s1,a5
80002e0c:	00a7f863          	bgeu	a5,a0,80002e1c <__umoddi3+0x26c>
80002e10:	014787b3          	add	a5,a5,s4
80002e14:	0147e463          	bltu	a5,s4,80002e1c <__umoddi3+0x26c>
80002e18:	36a7e463          	bltu	a5,a0,80003180 <__umoddi3+0x5d0>
80002e1c:	40a78433          	sub	s0,a5,a0
80002e20:	000b8593          	mv	a1,s7
80002e24:	00040513          	mv	a0,s0
80002e28:	3d4000ef          	jal	ra,800031fc <__umodsi3>
80002e2c:	00050493          	mv	s1,a0
80002e30:	000b8593          	mv	a1,s7
80002e34:	00040513          	mv	a0,s0
80002e38:	37c000ef          	jal	ra,800031b4 <__udivsi3>
80002e3c:	000a8593          	mv	a1,s5
80002e40:	01099993          	slli	s3,s3,0x10
80002e44:	344000ef          	jal	ra,80003188 <__mulsi3>
80002e48:	01049493          	slli	s1,s1,0x10
80002e4c:	0109d993          	srli	s3,s3,0x10
80002e50:	0134e7b3          	or	a5,s1,s3
80002e54:	00a7fa63          	bgeu	a5,a0,80002e68 <__umoddi3+0x2b8>
80002e58:	014787b3          	add	a5,a5,s4
80002e5c:	0147e663          	bltu	a5,s4,80002e68 <__umoddi3+0x2b8>
80002e60:	00a7f463          	bgeu	a5,a0,80002e68 <__umoddi3+0x2b8>
80002e64:	014787b3          	add	a5,a5,s4
80002e68:	40a78533          	sub	a0,a5,a0
80002e6c:	01255533          	srl	a0,a0,s2
80002e70:	00000593          	li	a1,0
80002e74:	e7dff06f          	j	80002cf0 <__umoddi3+0x140>
80002e78:	0ff00793          	li	a5,255
80002e7c:	000a0713          	mv	a4,s4
80002e80:	f347f6e3          	bgeu	a5,s4,80002dac <__umoddi3+0x1fc>
80002e84:	008a5713          	srli	a4,s4,0x8
80002e88:	00800913          	li	s2,8
80002e8c:	f21ff06f          	j	80002dac <__umoddi3+0x1fc>
80002e90:	0ff00793          	li	a5,255
80002e94:	00060713          	mv	a4,a2
80002e98:	d8c7f2e3          	bgeu	a5,a2,80002c1c <__umoddi3+0x6c>
80002e9c:	00865713          	srli	a4,a2,0x8
80002ea0:	00800913          	li	s2,8
80002ea4:	d79ff06f          	j	80002c1c <__umoddi3+0x6c>
80002ea8:	0ff00793          	li	a5,255
80002eac:	2ad7f663          	bgeu	a5,a3,80003158 <__umoddi3+0x5a8>
80002eb0:	0086d813          	srli	a6,a3,0x8
80002eb4:	00800713          	li	a4,8
80002eb8:	e8dff06f          	j	80002d44 <__umoddi3+0x194>
80002ebc:	015657b3          	srl	a5,a2,s5
80002ec0:	016696b3          	sll	a3,a3,s6
80002ec4:	00d7e9b3          	or	s3,a5,a3
80002ec8:	0154da33          	srl	s4,s1,s5
80002ecc:	0109dc93          	srli	s9,s3,0x10
80002ed0:	015457b3          	srl	a5,s0,s5
80002ed4:	000c8593          	mv	a1,s9
80002ed8:	000a0513          	mv	a0,s4
80002edc:	016494b3          	sll	s1,s1,s6
80002ee0:	0097e4b3          	or	s1,a5,s1
80002ee4:	01661933          	sll	s2,a2,s6
80002ee8:	314000ef          	jal	ra,800031fc <__umodsi3>
80002eec:	00050c13          	mv	s8,a0
80002ef0:	000c8593          	mv	a1,s9
80002ef4:	000a0513          	mv	a0,s4
80002ef8:	01099d13          	slli	s10,s3,0x10
80002efc:	2b8000ef          	jal	ra,800031b4 <__udivsi3>
80002f00:	010d5d13          	srli	s10,s10,0x10
80002f04:	00050593          	mv	a1,a0
80002f08:	00050a13          	mv	s4,a0
80002f0c:	000d0513          	mv	a0,s10
80002f10:	278000ef          	jal	ra,80003188 <__mulsi3>
80002f14:	010c1c13          	slli	s8,s8,0x10
80002f18:	0104d793          	srli	a5,s1,0x10
80002f1c:	00fc67b3          	or	a5,s8,a5
80002f20:	01641433          	sll	s0,s0,s6
80002f24:	00a7fe63          	bgeu	a5,a0,80002f40 <__umoddi3+0x390>
80002f28:	013787b3          	add	a5,a5,s3
80002f2c:	fffa0713          	addi	a4,s4,-1
80002f30:	2537e463          	bltu	a5,s3,80003178 <__umoddi3+0x5c8>
80002f34:	24a7f263          	bgeu	a5,a0,80003178 <__umoddi3+0x5c8>
80002f38:	ffea0a13          	addi	s4,s4,-2
80002f3c:	013787b3          	add	a5,a5,s3
80002f40:	40a78bb3          	sub	s7,a5,a0
80002f44:	000c8593          	mv	a1,s9
80002f48:	000b8513          	mv	a0,s7
80002f4c:	2b0000ef          	jal	ra,800031fc <__umodsi3>
80002f50:	00050793          	mv	a5,a0
80002f54:	000c8593          	mv	a1,s9
80002f58:	000b8513          	mv	a0,s7
80002f5c:	01049493          	slli	s1,s1,0x10
80002f60:	00078b93          	mv	s7,a5
80002f64:	250000ef          	jal	ra,800031b4 <__udivsi3>
80002f68:	00050593          	mv	a1,a0
80002f6c:	00050c13          	mv	s8,a0
80002f70:	010b9b93          	slli	s7,s7,0x10
80002f74:	000d0513          	mv	a0,s10
80002f78:	0104d493          	srli	s1,s1,0x10
80002f7c:	20c000ef          	jal	ra,80003188 <__mulsi3>
80002f80:	009be4b3          	or	s1,s7,s1
80002f84:	00a4fe63          	bgeu	s1,a0,80002fa0 <__umoddi3+0x3f0>
80002f88:	013484b3          	add	s1,s1,s3
80002f8c:	fffc0793          	addi	a5,s8,-1
80002f90:	1f34e063          	bltu	s1,s3,80003170 <__umoddi3+0x5c0>
80002f94:	1ca4fe63          	bgeu	s1,a0,80003170 <__umoddi3+0x5c0>
80002f98:	ffec0c13          	addi	s8,s8,-2
80002f9c:	013484b3          	add	s1,s1,s3
80002fa0:	00010337          	lui	t1,0x10
80002fa4:	010a1a13          	slli	s4,s4,0x10
80002fa8:	018a6a33          	or	s4,s4,s8
80002fac:	fff30893          	addi	a7,t1,-1 # ffff <buflen.2940+0xffbf>
80002fb0:	011a7833          	and	a6,s4,a7
80002fb4:	011978b3          	and	a7,s2,a7
80002fb8:	40a484b3          	sub	s1,s1,a0
80002fbc:	010a5a13          	srli	s4,s4,0x10
80002fc0:	01095793          	srli	a5,s2,0x10
80002fc4:	00080513          	mv	a0,a6
80002fc8:	00088593          	mv	a1,a7
80002fcc:	1bc000ef          	jal	ra,80003188 <__mulsi3>
80002fd0:	00050713          	mv	a4,a0
80002fd4:	00078593          	mv	a1,a5
80002fd8:	00080513          	mv	a0,a6
80002fdc:	1ac000ef          	jal	ra,80003188 <__mulsi3>
80002fe0:	00050813          	mv	a6,a0
80002fe4:	00088593          	mv	a1,a7
80002fe8:	000a0513          	mv	a0,s4
80002fec:	19c000ef          	jal	ra,80003188 <__mulsi3>
80002ff0:	00050893          	mv	a7,a0
80002ff4:	00078593          	mv	a1,a5
80002ff8:	000a0513          	mv	a0,s4
80002ffc:	18c000ef          	jal	ra,80003188 <__mulsi3>
80003000:	01075793          	srli	a5,a4,0x10
80003004:	01180833          	add	a6,a6,a7
80003008:	010787b3          	add	a5,a5,a6
8000300c:	0117f463          	bgeu	a5,a7,80003014 <__umoddi3+0x464>
80003010:	00650533          	add	a0,a0,t1
80003014:	000106b7          	lui	a3,0x10
80003018:	fff68693          	addi	a3,a3,-1 # ffff <buflen.2940+0xffbf>
8000301c:	0107d593          	srli	a1,a5,0x10
80003020:	00d7f7b3          	and	a5,a5,a3
80003024:	01079793          	slli	a5,a5,0x10
80003028:	00d77733          	and	a4,a4,a3
8000302c:	00a585b3          	add	a1,a1,a0
80003030:	00e787b3          	add	a5,a5,a4
80003034:	0eb4ea63          	bltu	s1,a1,80003128 <__umoddi3+0x578>
80003038:	0eb48663          	beq	s1,a1,80003124 <__umoddi3+0x574>
8000303c:	40f407b3          	sub	a5,s0,a5
80003040:	00f43433          	sltu	s0,s0,a5
80003044:	40b485b3          	sub	a1,s1,a1
80003048:	408585b3          	sub	a1,a1,s0
8000304c:	01559533          	sll	a0,a1,s5
80003050:	0167d7b3          	srl	a5,a5,s6
80003054:	00f56533          	or	a0,a0,a5
80003058:	0165d5b3          	srl	a1,a1,s6
8000305c:	c95ff06f          	j	80002cf0 <__umoddi3+0x140>
80003060:	012a1a33          	sll	s4,s4,s2
80003064:	00f4d9b3          	srl	s3,s1,a5
80003068:	010a5b93          	srli	s7,s4,0x10
8000306c:	00f457b3          	srl	a5,s0,a5
80003070:	000b8593          	mv	a1,s7
80003074:	012494b3          	sll	s1,s1,s2
80003078:	00098513          	mv	a0,s3
8000307c:	0097ec33          	or	s8,a5,s1
80003080:	17c000ef          	jal	ra,800031fc <__umodsi3>
80003084:	00050493          	mv	s1,a0
80003088:	000b8593          	mv	a1,s7
8000308c:	00098513          	mv	a0,s3
80003090:	010a1a93          	slli	s5,s4,0x10
80003094:	120000ef          	jal	ra,800031b4 <__udivsi3>
80003098:	010ada93          	srli	s5,s5,0x10
8000309c:	00050593          	mv	a1,a0
800030a0:	000a8513          	mv	a0,s5
800030a4:	0e4000ef          	jal	ra,80003188 <__mulsi3>
800030a8:	01049493          	slli	s1,s1,0x10
800030ac:	010c5793          	srli	a5,s8,0x10
800030b0:	00f4e7b3          	or	a5,s1,a5
800030b4:	012419b3          	sll	s3,s0,s2
800030b8:	00a7fa63          	bgeu	a5,a0,800030cc <__umoddi3+0x51c>
800030bc:	014787b3          	add	a5,a5,s4
800030c0:	0147e663          	bltu	a5,s4,800030cc <__umoddi3+0x51c>
800030c4:	00a7f463          	bgeu	a5,a0,800030cc <__umoddi3+0x51c>
800030c8:	014787b3          	add	a5,a5,s4
800030cc:	40a78433          	sub	s0,a5,a0
800030d0:	000b8593          	mv	a1,s7
800030d4:	00040513          	mv	a0,s0
800030d8:	124000ef          	jal	ra,800031fc <__umodsi3>
800030dc:	00050b13          	mv	s6,a0
800030e0:	000b8593          	mv	a1,s7
800030e4:	00040513          	mv	a0,s0
800030e8:	0cc000ef          	jal	ra,800031b4 <__udivsi3>
800030ec:	010c1493          	slli	s1,s8,0x10
800030f0:	00050593          	mv	a1,a0
800030f4:	010b1b13          	slli	s6,s6,0x10
800030f8:	000a8513          	mv	a0,s5
800030fc:	0104d493          	srli	s1,s1,0x10
80003100:	088000ef          	jal	ra,80003188 <__mulsi3>
80003104:	009b64b3          	or	s1,s6,s1
80003108:	00a4fa63          	bgeu	s1,a0,8000311c <__umoddi3+0x56c>
8000310c:	014484b3          	add	s1,s1,s4
80003110:	0144e663          	bltu	s1,s4,8000311c <__umoddi3+0x56c>
80003114:	00a4f463          	bgeu	s1,a0,8000311c <__umoddi3+0x56c>
80003118:	014484b3          	add	s1,s1,s4
8000311c:	40a48433          	sub	s0,s1,a0
80003120:	cbdff06f          	j	80002ddc <__umoddi3+0x22c>
80003124:	f0f47ce3          	bgeu	s0,a5,8000303c <__umoddi3+0x48c>
80003128:	41278633          	sub	a2,a5,s2
8000312c:	00c7b7b3          	sltu	a5,a5,a2
80003130:	013787b3          	add	a5,a5,s3
80003134:	40f585b3          	sub	a1,a1,a5
80003138:	00060793          	mv	a5,a2
8000313c:	f01ff06f          	j	8000303c <__umoddi3+0x48c>
80003140:	0106d813          	srli	a6,a3,0x10
80003144:	01000713          	li	a4,16
80003148:	bfdff06f          	j	80002d44 <__umoddi3+0x194>
8000314c:	010a5713          	srli	a4,s4,0x10
80003150:	01000913          	li	s2,16
80003154:	c59ff06f          	j	80002dac <__umoddi3+0x1fc>
80003158:	00068813          	mv	a6,a3
8000315c:	00000713          	li	a4,0
80003160:	be5ff06f          	j	80002d44 <__umoddi3+0x194>
80003164:	01065713          	srli	a4,a2,0x10
80003168:	01000913          	li	s2,16
8000316c:	ab1ff06f          	j	80002c1c <__umoddi3+0x6c>
80003170:	00078c13          	mv	s8,a5
80003174:	e2dff06f          	j	80002fa0 <__umoddi3+0x3f0>
80003178:	00070a13          	mv	s4,a4
8000317c:	dc5ff06f          	j	80002f40 <__umoddi3+0x390>
80003180:	014787b3          	add	a5,a5,s4
80003184:	c99ff06f          	j	80002e1c <__umoddi3+0x26c>

80003188 <__mulsi3>:
80003188:	00050613          	mv	a2,a0
8000318c:	00000513          	li	a0,0
80003190:	0015f693          	andi	a3,a1,1
80003194:	00068463          	beqz	a3,8000319c <__mulsi3+0x14>
80003198:	00c50533          	add	a0,a0,a2
8000319c:	0015d593          	srli	a1,a1,0x1
800031a0:	00161613          	slli	a2,a2,0x1
800031a4:	fe0596e3          	bnez	a1,80003190 <__mulsi3+0x8>
800031a8:	00008067          	ret

800031ac <__divsi3>:
800031ac:	06054063          	bltz	a0,8000320c <__umodsi3+0x10>
800031b0:	0605c663          	bltz	a1,8000321c <__umodsi3+0x20>

800031b4 <__udivsi3>:
800031b4:	00058613          	mv	a2,a1
800031b8:	00050593          	mv	a1,a0
800031bc:	fff00513          	li	a0,-1
800031c0:	02060c63          	beqz	a2,800031f8 <__udivsi3+0x44>
800031c4:	00100693          	li	a3,1
800031c8:	00b67a63          	bgeu	a2,a1,800031dc <__udivsi3+0x28>
800031cc:	00c05863          	blez	a2,800031dc <__udivsi3+0x28>
800031d0:	00161613          	slli	a2,a2,0x1
800031d4:	00169693          	slli	a3,a3,0x1
800031d8:	feb66ae3          	bltu	a2,a1,800031cc <__udivsi3+0x18>
800031dc:	00000513          	li	a0,0
800031e0:	00c5e663          	bltu	a1,a2,800031ec <__udivsi3+0x38>
800031e4:	40c585b3          	sub	a1,a1,a2
800031e8:	00d56533          	or	a0,a0,a3
800031ec:	0016d693          	srli	a3,a3,0x1
800031f0:	00165613          	srli	a2,a2,0x1
800031f4:	fe0696e3          	bnez	a3,800031e0 <__udivsi3+0x2c>
800031f8:	00008067          	ret

800031fc <__umodsi3>:
800031fc:	00008293          	mv	t0,ra
80003200:	fb5ff0ef          	jal	ra,800031b4 <__udivsi3>
80003204:	00058513          	mv	a0,a1
80003208:	00028067          	jr	t0
8000320c:	40a00533          	neg	a0,a0
80003210:	0005d863          	bgez	a1,80003220 <__umodsi3+0x24>
80003214:	40b005b3          	neg	a1,a1
80003218:	f9dff06f          	j	800031b4 <__udivsi3>
8000321c:	40b005b3          	neg	a1,a1
80003220:	00008293          	mv	t0,ra
80003224:	f91ff0ef          	jal	ra,800031b4 <__udivsi3>
80003228:	40a00533          	neg	a0,a0
8000322c:	00028067          	jr	t0

80003230 <__modsi3>:
80003230:	00008293          	mv	t0,ra
80003234:	0005ca63          	bltz	a1,80003248 <__modsi3+0x18>
80003238:	00054c63          	bltz	a0,80003250 <__modsi3+0x20>
8000323c:	f79ff0ef          	jal	ra,800031b4 <__udivsi3>
80003240:	00058513          	mv	a0,a1
80003244:	00028067          	jr	t0
80003248:	40b005b3          	neg	a1,a1
8000324c:	fe0558e3          	bgez	a0,8000323c <__modsi3+0xc>
80003250:	40a00533          	neg	a0,a0
80003254:	f61ff0ef          	jal	ra,800031b4 <__udivsi3>
80003258:	40b00533          	neg	a0,a1
8000325c:	00028067          	jr	t0

Disassembly of section .text.startup:

80003260 <main>:
80003260:	fd010113          	addi	sp,sp,-48
80003264:	8401a623          	sw	zero,-1972(gp) # 800037c8 <g_nodePool+0x34>
80003268:	02112623          	sw	ra,44(sp)
8000326c:	00000797          	auipc	a5,0x0
80003270:	52878793          	addi	a5,a5,1320 # 80003794 <g_nodePool>
80003274:	06300693          	li	a3,99
80003278:	02d7a823          	sw	a3,48(a5)
8000327c:	00000697          	auipc	a3,0x0
80003280:	52068693          	addi	a3,a3,1312 # 8000379c <g_nodePool+0x8>
80003284:	00d7a223          	sw	a3,4(a5)
80003288:	00000697          	auipc	a3,0x0
8000328c:	5006a623          	sw	zero,1292(a3) # 80003794 <g_nodePool>
80003290:	00000697          	auipc	a3,0x0
80003294:	51468693          	addi	a3,a3,1300 # 800037a4 <g_nodePool+0x10>
80003298:	00d7a623          	sw	a3,12(a5)
8000329c:	00100693          	li	a3,1
800032a0:	00d7a423          	sw	a3,8(a5)
800032a4:	00000697          	auipc	a3,0x0
800032a8:	50868693          	addi	a3,a3,1288 # 800037ac <g_nodePool+0x18>
800032ac:	00d7aa23          	sw	a3,20(a5)
800032b0:	00200693          	li	a3,2
800032b4:	00d7a823          	sw	a3,16(a5)
800032b8:	00000697          	auipc	a3,0x0
800032bc:	4fc68693          	addi	a3,a3,1276 # 800037b4 <g_nodePool+0x20>
800032c0:	00d7ae23          	sw	a3,28(a5)
800032c4:	00300693          	li	a3,3
800032c8:	00d7ac23          	sw	a3,24(a5)
800032cc:	84018693          	addi	a3,gp,-1984 # 800037bc <g_nodePool+0x28>
800032d0:	02d7a223          	sw	a3,36(a5)
800032d4:	00400693          	li	a3,4
800032d8:	02d7a023          	sw	a3,32(a5)
800032dc:	84818693          	addi	a3,gp,-1976 # 800037c4 <g_nodePool+0x30>
800032e0:	00700713          	li	a4,7
800032e4:	00000897          	auipc	a7,0x0
800032e8:	49888893          	addi	a7,a7,1176 # 8000377c <g_nodeFreeList>
800032ec:	02d7a623          	sw	a3,44(a5)
800032f0:	00500693          	li	a3,5
800032f4:	02d7a423          	sw	a3,40(a5)
800032f8:	00e8a023          	sw	a4,0(a7)
800032fc:	00e12023          	sw	a4,0(sp)
80003300:	00012223          	sw	zero,4(sp)
80003304:	00012823          	sw	zero,16(sp)
80003308:	00012a23          	sw	zero,20(sp)
8000330c:	00012c23          	sw	zero,24(sp)
80003310:	00012e23          	sw	zero,28(sp)
80003314:	00000693          	li	a3,0
80003318:	0080006f          	j	80003320 <main+0xc0>
8000331c:	00080793          	mv	a5,a6
80003320:	0047a803          	lw	a6,4(a5)
80003324:	00e7a023          	sw	a4,0(a5)
80003328:	00d7a223          	sw	a3,4(a5)
8000332c:	fff70713          	addi	a4,a4,-1
80003330:	00078693          	mv	a3,a5
80003334:	fe0714e3          	bnez	a4,8000331c <main+0xbc>
80003338:	00700593          	li	a1,7
8000333c:	01810713          	addi	a4,sp,24
80003340:	01010693          	addi	a3,sp,16
80003344:	00810613          	addi	a2,sp,8
80003348:	00010513          	mv	a0,sp
8000334c:	00f12623          	sw	a5,12(sp)
80003350:	00700793          	li	a5,7
80003354:	00f12423          	sw	a5,8(sp)
80003358:	0108a223          	sw	a6,4(a7)
8000335c:	f8dfd0ef          	jal	ra,800012e8 <towers_solve_h>
80003360:	00010513          	mv	a0,sp
80003364:	e65fd0ef          	jal	ra,800011c8 <towers_clear>
80003368:	00100513          	li	a0,1
8000336c:	eb0fe0ef          	jal	ra,80001a1c <setStats>
80003370:	00012583          	lw	a1,0(sp)
80003374:	01810713          	addi	a4,sp,24
80003378:	01010693          	addi	a3,sp,16
8000337c:	00810613          	addi	a2,sp,8
80003380:	00010513          	mv	a0,sp
80003384:	f65fd0ef          	jal	ra,800012e8 <towers_solve_h>
80003388:	00000513          	li	a0,0
8000338c:	e90fe0ef          	jal	ra,80001a1c <setStats>
80003390:	00812783          	lw	a5,8(sp)
80003394:	00200513          	li	a0,2
80003398:	00079c63          	bnez	a5,800033b0 <main+0x150>
8000339c:	01012783          	lw	a5,16(sp)
800033a0:	00300513          	li	a0,3
800033a4:	00079663          	bnez	a5,800033b0 <main+0x150>
800033a8:	00010513          	mv	a0,sp
800033ac:	c9dfd0ef          	jal	ra,80001048 <towers_verify.part.0>
800033b0:	02c12083          	lw	ra,44(sp)
800033b4:	03010113          	addi	sp,sp,48
800033b8:	00008067          	ret
800033bc:	ff010113          	addi	sp,sp,-16
800033c0:	00000517          	auipc	a0,0x0
800033c4:	03c50513          	addi	a0,a0,60 # 800033fc <main+0x19c>
800033c8:	00112623          	sw	ra,12(sp)
800033cc:	f0cfe0ef          	jal	ra,80001ad8 <printstr>
800033d0:	00c12083          	lw	ra,12(sp)
800033d4:	fff00513          	li	a0,-1
800033d8:	01010113          	addi	sp,sp,16
800033dc:	00008067          	ret
